	.file	"test.c"
	.text
.Ltext0:
	.cfi_sections	.debug_frame
	.p2align 4,,15
	.globl	syscall
	.def	syscall;	.scl	2;	.type	32;	.endef
	.seh_proc	syscall
syscall:
.LFB0:
	.file 1 "D:/WORK/BUILD/OS/dcooos/kernel64/syscall.h"
	.loc 1 5 0
	.cfi_startproc
.LVL0:
	pushq	%rbx
	.seh_pushreg	%rbx
	.cfi_def_cfa_offset 16
	.cfi_offset 3, -16
	.seh_endprologue
	.loc 1 7 0
	movq	%rcx, %rax
	movq	%rdx, %rbx
/APP
 # 7 "D:/WORK/BUILD/OS/dcooos/kernel64/syscall.h" 1
	int $0x80
 # 0 "" 2
.LVL1:
	.loc 1 9 0
/NO_APP
	popq	%rbx
	.cfi_restore 3
	.cfi_def_cfa_offset 8
	ret
	.cfi_endproc
.LFE0:
	.seh_endproc
	.section .rdata,"dr"
.LC0:
	.ascii "find_object log\0"
.LC1:
	.ascii "print \"OBJECT VIDEO EXECUTE\"\0"
	.text
	.p2align 4,,15
	.globl	initialize_object
	.def	initialize_object;	.scl	2;	.type	32;	.endef
	.seh_proc	initialize_object
initialize_object:
.LFB1:
	.file 2 "D:/WORK/BUILD/OS/dcooos/test/test.c"
	.loc 2 5 0
	.cfi_startproc
	pushq	%rbx
	.seh_pushreg	%rbx
	.cfi_def_cfa_offset 16
	.cfi_offset 3, -16
	.seh_endprologue
.LVL2:
.LBB6:
.LBB7:
	.loc 1 7 0
	leaq	.LC0(%rip), %rbx
	xorl	%eax, %eax
/APP
 # 7 "D:/WORK/BUILD/OS/dcooos/kernel64/syscall.h" 1
	int $0x80
 # 0 "" 2
.LVL3:
/NO_APP
.LBE7:
.LBE6:
.LBB8:
.LBB9:
	leaq	.LC1(%rip), %rbx
/APP
 # 7 "D:/WORK/BUILD/OS/dcooos/kernel64/syscall.h" 1
	int $0x80
 # 0 "" 2
.LVL4:
/NO_APP
.L3:
	jmp	.L3
.LBE9:
.LBE8:
	.cfi_endproc
.LFE1:
	.seh_endproc
	.comm	objects_main_tree, 8, 3
	.comm	tasks, 8, 3
	.comm	current_task, 8, 3
.Letext0:
	.file 3 "D:/WORK/BUILD/OS/dcooos/kernel64/types.h"
	.file 4 "D:/WORK/BUILD/OS/dcooos/kernel64/idt.h"
	.file 5 "D:/WORK/BUILD/OS/dcooos/kernel64/task.h"
	.file 6 "D:/WORK/BUILD/OS/dcooos/kernel64/objects.h"