	.file	"video.c"
	.text
.Ltext0:
	.cfi_sections	.debug_frame
	.p2align 4,,15
	.globl	syscall
	.def	syscall;	.scl	2;	.type	32;	.endef
	.seh_proc	syscall
syscall:
.LFB0:
	.file 1 "D:/WORK/BUILD/OS/dcooos/kernel64/syscall.h"
	.loc 1 5 0
	.cfi_startproc
.LVL0:
	pushq	%rbx
	.seh_pushreg	%rbx
	.cfi_def_cfa_offset 16
	.cfi_offset 3, -16
	.seh_endprologue
	.loc 1 7 0
	movq	%rcx, %rax
	movq	%rdx, %rbx
/APP
 # 7 "D:/WORK/BUILD/OS/dcooos/kernel64/syscall.h" 1
	int $0x80
 # 0 "" 2
.LVL1:
	.loc 1 9 0
/NO_APP
	popq	%rbx
	.cfi_restore 3
	.cfi_def_cfa_offset 8
	ret
	.cfi_endproc
.LFE0:
	.seh_endproc
	.p2align 4,,15
	.globl	memcpy
	.def	memcpy;	.scl	2;	.type	32;	.endef
	.seh_proc	memcpy
memcpy:
.LFB1:
	.file 2 "D:/WORK/BUILD/OS/dcooos/kernel64/strings.c"
	.loc 2 5 0
	.cfi_startproc
.LVL2:
	.seh_endprologue
.LVL3:
	.loc 2 9 0
	xorl	%eax, %eax
	testq	%r8, %r8
	je	.L2
.LVL4:
	.p2align 4,,10
.L6:
	.loc 2 10 0
	movzbl	(%rdx,%rax), %r9d
	movb	%r9b, (%rcx,%rax)
.LVL5:
	addq	$1, %rax
.LVL6:
	.loc 2 9 0
	cmpq	%r8, %rax
	jne	.L6
.LVL7:
.L2:
	ret
	.cfi_endproc
.LFE1:
	.seh_endproc
	.p2align 4,,15
	.globl	memset
	.def	memset;	.scl	2;	.type	32;	.endef
	.seh_proc	memset
memset:
.LFB2:
	.loc 2 15 0
	.cfi_startproc
.LVL8:
	.seh_endprologue
.LVL9:
	leaq	(%rcx,%r8), %rax
	.loc 2 17 0
	testq	%r8, %r8
	je	.L9
.LVL10:
	.p2align 4,,10
.L13:
	.loc 2 18 0
	addq	$1, %rcx
.LVL11:
	movb	%dl, -1(%rcx)
	.loc 2 17 0
	cmpq	%rcx, %rax
	jne	.L13
.LVL12:
.L9:
	ret
	.cfi_endproc
.LFE2:
	.seh_endproc
	.p2align 4,,15
	.globl	strcmp
	.def	strcmp;	.scl	2;	.type	32;	.endef
	.seh_proc	strcmp
strcmp:
.LFB3:
	.loc 2 24 0
	.cfi_startproc
.LVL13:
	.seh_endprologue
.LVL14:
	.loc 2 27 0
	movzbl	(%rcx), %eax
	testb	%al, %al
	je	.L21
	movzbl	(%rdx), %r8d
	testb	%r8b, %r8b
	je	.L24
	.loc 2 29 0
	cmpb	%al, %r8b
	jne	.L24
	xorl	%eax, %eax
	jmp	.L19
.LVL15:
	.p2align 4,,10
.L28:
	.loc 2 27 0 discriminator 1
	movzbl	(%rdx,%rax), %r9d
	testb	%r9b, %r9b
	je	.L24
	.loc 2 29 0
	cmpb	%r9b, %r8b
	jne	.L24
.LVL16:
.L19:
	.loc 2 34 0
	addq	$1, %rax
.LVL17:
	.loc 2 27 0
	movzbl	(%rcx,%rax), %r8d
	testb	%r8b, %r8b
	jne	.L28
.LVL18:
.L16:
	.loc 2 37 0
	cmpb	$0, (%rdx,%rax)
	setne	%al
	movzbl	%al, %eax
	.loc 2 41 0
	ret
	.p2align 4,,10
.L24:
	.loc 2 38 0
	movl	$1, %eax
.LVL19:
	.loc 2 40 0
	ret
.LVL20:
.L21:
	.loc 2 25 0
	xorl	%eax, %eax
	jmp	.L16
	.cfi_endproc
.LFE3:
	.seh_endproc
	.p2align 4,,15
	.globl	strcpy
	.def	strcpy;	.scl	2;	.type	32;	.endef
	.seh_proc	strcpy
strcpy:
.LFB4:
	.loc 2 45 0
	.cfi_startproc
.LVL21:
	.seh_endprologue
	movzbl	(%rdx), %eax
	.p2align 4,,10
.L30:
	.loc 2 48 0 discriminator 1
	addq	$1, %rcx
.LVL22:
	addq	$1, %rdx
.LVL23:
	movb	%al, -1(%rcx)
	.loc 2 50 0 discriminator 1
	movzbl	(%rdx), %eax
	testb	%al, %al
	jne	.L30
.LVL24:
	.loc 2 51 0
	movb	$0, (%rcx)
	.loc 2 52 0
	ret
	.cfi_endproc
.LFE4:
	.seh_endproc
	.p2align 4,,15
	.globl	strncpy
	.def	strncpy;	.scl	2;	.type	32;	.endef
	.seh_proc	strncpy
strncpy:
.LFB5:
	.loc 2 56 0
	.cfi_startproc
.LVL25:
	.seh_endprologue
	.loc 2 57 0
	subl	$1, %r8d
.LVL26:
	.loc 2 58 0
	testl	%r8d, %r8d
	movslq	%r8d, %rax
	js	.L35
.LVL27:
	.p2align 4,,10
.L36:
	.loc 2 59 0
	movzbl	(%rdx,%rax), %r8d
	movb	%r8b, (%rcx,%rax)
.LVL28:
	subq	$1, %rax
.LVL29:
	.loc 2 58 0
	testl	%eax, %eax
	jns	.L36
.L35:
	.loc 2 62 0
	xorl	%eax, %eax
	ret
	.cfi_endproc
.LFE5:
	.seh_endproc
	.p2align 4,,15
	.globl	strcat
	.def	strcat;	.scl	2;	.type	32;	.endef
	.seh_proc	strcat
strcat:
.LFB6:
	.loc 2 66 0
	.cfi_startproc
.LVL30:
	.seh_endprologue
	.loc 2 66 0
	movq	%rcx, %rax
	.loc 2 67 0
	movzbl	(%rcx), %ecx
.LVL31:
	testb	%cl, %cl
	je	.L40
	.p2align 4,,10
.L41:
	.loc 2 69 0
	addq	$1, %rax
.LVL32:
	movb	%cl, (%rax)
	jmp	.L41
.L40:
	movzbl	(%rdx), %ecx
	.p2align 4,,10
.L42:
	.loc 2 74 0 discriminator 1
	addq	$1, %rax
.LVL33:
	addq	$1, %rdx
.LVL34:
	movb	%cl, -1(%rax)
	.loc 2 76 0 discriminator 1
	movzbl	(%rdx), %ecx
	testb	%cl, %cl
	jne	.L42
	.loc 2 78 0
	ret
	.cfi_endproc
.LFE6:
	.seh_endproc
	.p2align 4,,15
	.globl	strchr
	.def	strchr;	.scl	2;	.type	32;	.endef
	.seh_proc	strchr
strchr:
.LFB7:
	.loc 2 81 0
	.cfi_startproc
.LVL35:
	.seh_endprologue
.LVL36:
	.loc 2 83 0
	movzbl	(%rcx), %eax
	testb	%al, %al
	.loc 2 81 0
	movl	%edx, %r8d
	.loc 2 83 0
	je	.L49
	.loc 2 84 0
	cmpb	%al, %dl
	.loc 2 89 0
	movl	$0, %eax
	.loc 2 84 0
	jne	.L47
	jmp	.L44
.LVL37:
	.p2align 4,,10
.L48:
	cmpb	%r8b, %dl
	je	.L44
.LVL38:
.L47:
	.loc 2 87 0
	addq	$1, %rax
.LVL39:
	.loc 2 83 0
	movzbl	(%rcx,%rax), %edx
	testb	%dl, %dl
	jne	.L48
.LVL40:
.L49:
	.loc 2 89 0
	xorl	%eax, %eax
	ret
	.p2align 4,,10
.L44:
	.loc 2 90 0
	ret
	.cfi_endproc
.LFE7:
	.seh_endproc
	.p2align 4,,15
	.globl	strlen
	.def	strlen;	.scl	2;	.type	32;	.endef
	.seh_proc	strlen
strlen:
.LFB8:
	.loc 2 93 0
	.cfi_startproc
.LVL41:
	.seh_endprologue
.LVL42:
	.loc 2 95 0
	xorl	%eax, %eax
	cmpb	$0, (%rcx)
	je	.L54
.LVL43:
	.p2align 4,,10
.L53:
	.loc 2 96 0
	addq	$1, %rax
.LVL44:
	.loc 2 95 0
	cmpb	$0, (%rcx,%rax)
	jne	.L53
	ret
.LVL45:
.L54:
	.loc 2 98 0
	ret
	.cfi_endproc
.LFE8:
	.seh_endproc
	.p2align 4,,15
	.globl	str2int
	.def	str2int;	.scl	2;	.type	32;	.endef
	.seh_proc	str2int
str2int:
.LFB9:
	.loc 2 100 0
	.cfi_startproc
.LVL46:
	.seh_endprologue
.LVL47:
	.loc 2 103 0
	movzbl	(%rcx), %eax
	subl	$48, %eax
	cmpb	$9, %al
	movl	$0, %eax
	ja	.L60
.LVL48:
	.p2align 4,,10
.L58:
	movzbl	1(%rcx,%rax), %edx
	movslq	%eax, %r9
.LVL49:
	addq	$1, %rax
.LVL50:
	subl	$48, %edx
	cmpb	$9, %dl
	jbe	.L58
	movl	$1, %r8d
	xorl	%eax, %eax
.LVL51:
	.p2align 4,,10
.L59:
	.loc 2 108 0
	movzbl	(%rcx,%r9), %edx
	subq	$1, %r9
.LVL52:
	subl	$48, %edx
	movslq	%edx, %rdx
	imulq	%r8, %rdx
	.loc 2 109 0
	leaq	(%r8,%r8,4), %r8
.LVL53:
	addq	%r8, %r8
	.loc 2 108 0
	addq	%rdx, %rax
.LVL54:
	.loc 2 107 0
	cmpl	$-1, %r9d
	jne	.L59
	ret
.LVL55:
.L60:
	.loc 2 113 0
	ret
	.cfi_endproc
.LFE9:
	.seh_endproc
	.p2align 4,,15
	.globl	str2hex
	.def	str2hex;	.scl	2;	.type	32;	.endef
	.seh_proc	str2hex
str2hex:
.LFB10:
	.loc 2 116 0
	.cfi_startproc
.LVL56:
	.seh_endprologue
.LVL57:
	.loc 2 119 0
	xorl	%edx, %edx
	jmp	.L64
.LVL58:
	.p2align 4,,10
.L65:
	addq	$1, %rdx
.LVL59:
.L64:
	movzbl	(%rcx,%rdx), %eax
	movl	%edx, %r8d
.LVL60:
	leal	-48(%rax), %r9d
	cmpb	$9, %r9b
	jbe	.L65
	.loc 2 119 0 is_stmt 0 discriminator 1
	andl	$-33, %eax
	subl	$65, %eax
	cmpb	$5, %al
	jbe	.L65
	.loc 2 122 0 is_stmt 1
	subl	$1, %r8d
.LVL61:
	.loc 2 123 0
	cmpl	$-1, %r8d
	je	.L71
	movslq	%r8d, %r8
	movl	$1, %r9d
	xorl	%eax, %eax
	jmp	.L70
.LVL62:
	.p2align 4,,10
.L74:
	.loc 2 125 0
	subl	$87, %edx
	movslq	%edx, %rdx
	imulq	%r9, %rdx
	addq	%rdx, %rax
.LVL63:
.L68:
	subq	$1, %r8
.LVL64:
	.loc 2 131 0
	salq	$4, %r9
.LVL65:
	.loc 2 123 0
	cmpl	$-1, %r8d
	je	.L73
.LVL66:
.L70:
	.loc 2 124 0
	movzbl	(%rcx,%r8), %edx
	leal	-97(%rdx), %r10d
	cmpb	$5, %r10b
	jbe	.L74
	.loc 2 126 0
	leal	-65(%rdx), %r10d
	cmpb	$5, %r10b
	ja	.L69
	.loc 2 127 0
	subl	$55, %edx
	subq	$1, %r8
.LVL67:
	movslq	%edx, %rdx
	imulq	%r9, %rdx
	.loc 2 131 0
	salq	$4, %r9
.LVL68:
	.loc 2 127 0
	addq	%rdx, %rax
.LVL69:
	.loc 2 123 0
	cmpl	$-1, %r8d
	jne	.L70
.L73:
	ret
.LVL70:
	.p2align 4,,10
.L69:
	.loc 2 128 0
	leal	-48(%rdx), %r10d
	cmpb	$9, %r10b
	ja	.L68
	.loc 2 129 0
	subl	$48, %edx
	movslq	%edx, %rdx
	imulq	%r9, %rdx
	addq	%rdx, %rax
.LVL71:
	jmp	.L68
.LVL72:
.L71:
	.loc 2 118 0
	xorl	%eax, %eax
	.loc 2 135 0
	ret
	.cfi_endproc
.LFE10:
	.seh_endproc
	.p2align 4,,15
	.globl	inb
	.def	inb;	.scl	2;	.type	32;	.endef
	.seh_proc	inb
inb:
.LFB11:
	.file 3 "D:/WORK/BUILD/OS/dcooos/kernel64/system_ll/ioport.c"
	.loc 3 3 0
	.cfi_startproc
.LVL73:
	.seh_endprologue
	.loc 3 5 0
	movl	%ecx, %edx
/APP
 # 5 "D:/WORK/BUILD/OS/dcooos/kernel64/system_ll/ioport.c" 1
	inb (%dx)
 # 0 "" 2
.LVL74:
	.loc 3 7 0
/NO_APP
	ret
	.cfi_endproc
.LFE11:
	.seh_endproc
	.p2align 4,,15
	.globl	inw
	.def	inw;	.scl	2;	.type	32;	.endef
	.seh_proc	inw
inw:
.LFB12:
	.loc 3 8 0
	.cfi_startproc
.LVL75:
	.seh_endprologue
	.loc 3 10 0
	movl	%ecx, %edx
/APP
 # 10 "D:/WORK/BUILD/OS/dcooos/kernel64/system_ll/ioport.c" 1
	inw (%dx)
 # 0 "" 2
.LVL76:
	.loc 3 12 0
/NO_APP
	ret
	.cfi_endproc
.LFE12:
	.seh_endproc
	.p2align 4,,15
	.globl	inl
	.def	inl;	.scl	2;	.type	32;	.endef
	.seh_proc	inl
inl:
.LFB13:
	.loc 3 13 0
	.cfi_startproc
.LVL77:
	.seh_endprologue
	.loc 3 15 0
	movl	%ecx, %edx
/APP
 # 15 "D:/WORK/BUILD/OS/dcooos/kernel64/system_ll/ioport.c" 1
	inl (%dx)
 # 0 "" 2
.LVL78:
	.loc 3 16 0
/NO_APP
	movzwl	%ax, %eax
	.loc 3 17 0
	ret
	.cfi_endproc
.LFE13:
	.seh_endproc
	.p2align 4,,15
	.globl	outb
	.def	outb;	.scl	2;	.type	32;	.endef
	.seh_proc	outb
outb:
.LFB14:
	.loc 3 18 0
	.cfi_startproc
.LVL79:
	.seh_endprologue
	.loc 3 18 0
	movl	%edx, %eax
	.loc 3 19 0
	movl	%ecx, %edx
.LVL80:
/APP
 # 19 "D:/WORK/BUILD/OS/dcooos/kernel64/system_ll/ioport.c" 1
	outb (%dx)
 # 0 "" 2
/NO_APP
	ret
	.cfi_endproc
.LFE14:
	.seh_endproc
	.p2align 4,,15
	.globl	outw
	.def	outw;	.scl	2;	.type	32;	.endef
	.seh_proc	outw
outw:
.LFB15:
	.loc 3 21 0
	.cfi_startproc
.LVL81:
	.seh_endprologue
	.loc 3 21 0
	movl	%edx, %eax
	.loc 3 22 0
	movl	%ecx, %edx
.LVL82:
/APP
 # 22 "D:/WORK/BUILD/OS/dcooos/kernel64/system_ll/ioport.c" 1
	outw (%dx)
 # 0 "" 2
/NO_APP
	ret
	.cfi_endproc
.LFE15:
	.seh_endproc
	.p2align 4,,15
	.globl	outl
	.def	outl;	.scl	2;	.type	32;	.endef
	.seh_proc	outl
outl:
.LFB16:
	.loc 3 24 0
	.cfi_startproc
.LVL83:
	.seh_endprologue
	.loc 3 24 0
	movl	%edx, %eax
	.loc 3 25 0
	movl	%ecx, %edx
.LVL84:
/APP
 # 25 "D:/WORK/BUILD/OS/dcooos/kernel64/system_ll/ioport.c" 1
	outl (%dx)
 # 0 "" 2
/NO_APP
	ret
	.cfi_endproc
.LFE16:
	.seh_endproc
	.p2align 4,,15
	.globl	put_pixel
	.def	put_pixel;	.scl	2;	.type	32;	.endef
	.seh_proc	put_pixel
put_pixel:
.LFB17:
	.file 4 "D:/WORK/BUILD/OS/dcooos/video/video.c"
	.loc 4 33 0
	.cfi_startproc
.LVL85:
	.seh_endprologue
.LVL86:
	.loc 4 38 0
	leaq	(%rdx,%rdx,4), %rax
	leaq	(%rax,%rax,4), %rax
	salq	$5, %rax
	addq	%rax, %rcx
.LVL87:
	movq	video_buffer(%rip), %rax
	movw	%r8w, (%rax,%rcx,2)
	ret
	.cfi_endproc
.LFE17:
	.seh_endproc
	.p2align 4,,15
	.globl	get_pixel
	.def	get_pixel;	.scl	2;	.type	32;	.endef
	.seh_proc	get_pixel
get_pixel:
.LFB18:
	.loc 4 41 0
	.cfi_startproc
.LVL88:
	.seh_endprologue
.LVL89:
	.loc 4 43 0
	leaq	(%rdx,%rdx,4), %rax
	leaq	(%rax,%rax,4), %rax
	salq	$5, %rax
	addq	%rax, %rcx
.LVL90:
	.loc 4 45 0
	movq	video_buffer(%rip), %rax
	leaq	(%rax,%rcx,2), %rdx
.LVL91:
	.loc 4 46 0
	xorl	%eax, %eax
	.loc 4 45 0
	movzbl	1(%rdx), %ecx
.LVL92:
	.loc 4 46 0
	movb	(%rdx), %al
	movb	%cl, %ah
.LVL93:
	.loc 4 47 0
	ret
	.cfi_endproc
.LFE18:
	.seh_endproc
	.p2align 4,,15
	.globl	put_line
	.def	put_line;	.scl	2;	.type	32;	.endef
	.seh_proc	put_line
put_line:
.LFB19:
	.loc 4 50 0
	.cfi_startproc
.LVL94:
	pushq	%r12
	.seh_pushreg	%r12
	.cfi_def_cfa_offset 16
	.cfi_offset 12, -16
	pushq	%rbp
	.seh_pushreg	%rbp
	.cfi_def_cfa_offset 24
	.cfi_offset 6, -24
	pushq	%rdi
	.seh_pushreg	%rdi
	.cfi_def_cfa_offset 32
	.cfi_offset 5, -32
	pushq	%rsi
	.seh_pushreg	%rsi
	.cfi_def_cfa_offset 40
	.cfi_offset 4, -40
	pushq	%rbx
	.seh_pushreg	%rbx
	.cfi_def_cfa_offset 48
	.cfi_offset 3, -48
	.seh_endprologue
	.loc 4 50 0
	movzwl	80(%rsp), %ebx
.LVL95:
	.loc 4 57 0
	cmpl	%r8d, %ecx
	movl	%ebx, %r11d
.LVL96:
	movzbl	%bh, %ebx
.LVL97:
	jle	.L84
	cmpl	%r9d, %edx
	jle	.L84
.LVL98:
	.loc 4 67 0
	movl	%ecx, %eax
	.loc 4 68 0
	movl	%edx, %r10d
	.loc 4 67 0
	subl	%r8d, %eax
.LVL99:
	.loc 4 68 0
	subl	%r9d, %r10d
.LVL100:
	.loc 4 135 0
	cmpl	%r10d, %eax
	jl	.L86
.LVL101:
.L85:
	movslq	%r8d, %r12
	subl	%r8d, %ecx
.LVL102:
	movq	video_buffer(%rip), %rbp
	leaq	1(%r12), %rsi
	leaq	(%rsi,%rcx), %r8
.LVL103:
	.loc 4 120 0
	xorl	%ecx, %ecx
	jmp	.L96
.LVL104:
	.p2align 4,,10
.L112:
	addq	$1, %rsi
.LVL105:
.L96:
	.loc 4 141 0
	movslq	%r9d, %rdi
.LVL106:
	.loc 4 142 0
	addl	%r10d, %ecx
.LVL107:
.LBB92:
.LBB93:
	.loc 4 37 0
	leaq	(%rdi,%rdi,4), %rdi
.LVL108:
	leaq	(%rdi,%rdi,4), %rdx
	salq	$5, %rdx
	addq	%r12, %rdx
.LBE93:
.LBE92:
	.loc 4 143 0
	cmpl	%eax, %ecx
.LBB95:
.LBB94:
	.loc 4 38 0
	leaq	0(%rbp,%rdx,2), %rdx
	movb	%r11b, (%rdx)
	movb	%bl, 1(%rdx)
.LVL109:
.LBE94:
.LBE95:
	.loc 4 143 0
	jl	.L95
	.loc 4 146 0
	addl	$1, %r9d
.LVL110:
	.loc 4 147 0
	subl	%eax, %ecx
.LVL111:
.L95:
	.loc 4 138 0 discriminator 2
	cmpq	%rsi, %r8
	movq	%rsi, %r12
	jne	.L112
.LVL112:
.L83:
	.loc 4 169 0
	popq	%rbx
	.cfi_remember_state
	.cfi_restore 3
	.cfi_def_cfa_offset 40
.LVL113:
	popq	%rsi
	.cfi_restore 4
	.cfi_def_cfa_offset 32
	popq	%rdi
	.cfi_restore 5
	.cfi_def_cfa_offset 24
	popq	%rbp
	.cfi_restore 6
	.cfi_def_cfa_offset 16
	popq	%r12
	.cfi_restore 12
	.cfi_def_cfa_offset 8
	ret
.LVL114:
	.p2align 4,,10
.L84:
	.cfi_restore_state
	.loc 4 71 0
	movl	%r8d, %eax
	.loc 4 74 0
	movl	%r9d, %r10d
	.loc 4 71 0
	subl	%ecx, %eax
.LVL115:
	.loc 4 74 0
	subl	%edx, %r10d
.LVL116:
	js	.L113
	.loc 4 84 0
	testl	%eax, %eax
	js	.L114
	.loc 4 135 0
	cmpl	%r10d, %eax
	jl	.L115
.LVL117:
	.loc 4 138 0 discriminator 1
	cmpl	%r8d, %ecx
	jg	.L83
	.loc 4 138 0 is_stmt 0
	movl	%edx, %r9d
.LVL118:
	movl	%r8d, %edx
.LVL119:
	movl	%ecx, %r8d
.LVL120:
	movl	%edx, %ecx
.LVL121:
	jmp	.L85
.LVL122:
	.p2align 4,,10
.L115:
	movl	%r9d, %r8d
.LVL123:
	movl	%edx, %r9d
.LVL124:
	movl	%r8d, %edx
.LVL125:
	movl	%ecx, %r8d
.LVL126:
.L86:
	.loc 4 156 0 is_stmt 1 discriminator 1
	cmpl	%edx, %r9d
	jg	.L83
	movslq	%r9d, %rsi
	subl	%r9d, %edx
.LVL127:
	movq	video_buffer(%rip), %rdi
	leaq	1(%rsi,%rdx), %rdx
	leaq	(%rsi,%rsi,4), %rcx
	leaq	(%rdx,%rdx,4), %rdx
	leaq	(%rdx,%rdx,4), %rsi
	.loc 4 156 0 is_stmt 0
	xorl	%edx, %edx
	leaq	(%rcx,%rcx,4), %rcx
	salq	$5, %rsi
	salq	$5, %rcx
.LVL128:
	.p2align 4,,10
.L98:
	.loc 4 159 0 is_stmt 1
	movslq	%r8d, %r9
.LVL129:
	.loc 4 160 0
	addl	%eax, %edx
.LVL130:
.LBB96:
.LBB97:
	.loc 4 37 0
	addq	%rcx, %r9
.LVL131:
.LBE97:
.LBE96:
	.loc 4 161 0
	cmpl	%r10d, %edx
.LBB99:
.LBB98:
	.loc 4 38 0
	leaq	(%rdi,%r9,2), %r9
.LVL132:
	movb	%r11b, (%r9)
	movb	%bl, 1(%r9)
.LVL133:
.LBE98:
.LBE99:
	.loc 4 161 0
	jl	.L97
	.loc 4 163 0
	addl	$1, %r8d
.LVL134:
	.loc 4 164 0
	subl	%r10d, %edx
.LVL135:
.L97:
	addq	$800, %rcx
	.loc 4 156 0 discriminator 2
	cmpq	%rcx, %rsi
	jne	.L98
	.loc 4 169 0
	popq	%rbx
	.cfi_remember_state
	.cfi_restore 3
	.cfi_def_cfa_offset 40
.LVL136:
	popq	%rsi
	.cfi_restore 4
	.cfi_def_cfa_offset 32
	popq	%rdi
	.cfi_restore 5
	.cfi_def_cfa_offset 24
	popq	%rbp
	.cfi_restore 6
	.cfi_def_cfa_offset 16
	popq	%r12
	.cfi_restore 12
	.cfi_def_cfa_offset 8
	ret
.LVL137:
	.p2align 4,,10
.L113:
	.cfi_restore_state
	.loc 4 76 0
	negl	%r10d
.LVL138:
.L88:
	.loc 4 99 0
	cmpl	%r10d, %eax
	jge	.L99
.LVL139:
	.loc 4 120 0 discriminator 1
	cmpl	%edx, %r9d
	jg	.L83
	movslq	%r9d, %rsi
	subl	%r9d, %edx
.LVL140:
	movq	video_buffer(%rip), %rdi
	leaq	1(%rsi,%rdx), %rdx
	leaq	(%rsi,%rsi,4), %rcx
.LVL141:
	leaq	(%rdx,%rdx,4), %rdx
	leaq	(%rdx,%rdx,4), %rsi
	.loc 4 120 0 is_stmt 0
	xorl	%edx, %edx
	leaq	(%rcx,%rcx,4), %rcx
	salq	$5, %rsi
	salq	$5, %rcx
.LVL142:
	.p2align 4,,10
.L93:
	.loc 4 123 0 is_stmt 1
	movslq	%r8d, %r9
.LVL143:
	.loc 4 124 0
	addl	%eax, %edx
.LVL144:
.LBB100:
.LBB101:
	.loc 4 37 0
	addq	%rcx, %r9
.LVL145:
.LBE101:
.LBE100:
	.loc 4 125 0
	cmpl	%r10d, %edx
.LBB103:
.LBB102:
	.loc 4 38 0
	leaq	(%rdi,%r9,2), %r9
.LVL146:
	movb	%r11b, (%r9)
	movb	%bl, 1(%r9)
.LVL147:
.LBE102:
.LBE103:
	.loc 4 125 0
	jl	.L92
	.loc 4 127 0
	subl	$1, %r8d
.LVL148:
	.loc 4 128 0
	subl	%r10d, %edx
.LVL149:
.L92:
	addq	$800, %rcx
	.loc 4 120 0 discriminator 2
	cmpq	%rsi, %rcx
	jne	.L93
	.loc 4 169 0
	popq	%rbx
	.cfi_remember_state
	.cfi_restore 3
	.cfi_def_cfa_offset 40
.LVL150:
	popq	%rsi
	.cfi_restore 4
	.cfi_def_cfa_offset 32
	popq	%rdi
	.cfi_restore 5
	.cfi_def_cfa_offset 24
	popq	%rbp
	.cfi_restore 6
	.cfi_def_cfa_offset 16
	popq	%r12
	.cfi_restore 12
	.cfi_def_cfa_offset 8
	ret
.LVL151:
	.p2align 4,,10
.L99:
	.cfi_restore_state
	.loc 4 102 0 discriminator 1
	cmpl	%r8d, %ecx
	jg	.L83
	movslq	%ecx, %r12
	subl	%ecx, %r8d
.LVL152:
	movq	video_buffer(%rip), %rbp
	.loc 4 102 0 is_stmt 0
	xorl	%r9d, %r9d
.LVL153:
	leaq	1(%r12), %rsi
	addq	%rsi, %r8
	jmp	.L91
.LVL154:
	.p2align 4,,10
.L116:
	addq	$1, %rsi
.LVL155:
.L91:
	.loc 4 105 0 is_stmt 1
	movslq	%edx, %rcx
.LVL156:
	.loc 4 106 0
	addl	%r10d, %r9d
.LVL157:
.LBB104:
.LBB105:
	.loc 4 37 0
	leaq	(%rcx,%rcx,4), %rdi
	leaq	(%rdi,%rdi,4), %rcx
.LVL158:
	salq	$5, %rcx
	addq	%r12, %rcx
.LBE105:
.LBE104:
	.loc 4 107 0
	cmpl	%eax, %r9d
.LBB107:
.LBB106:
	.loc 4 38 0
	leaq	0(%rbp,%rcx,2), %rcx
	movb	%r11b, (%rcx)
	movb	%bl, 1(%rcx)
.LVL159:
.LBE106:
.LBE107:
	.loc 4 107 0
	jl	.L90
	.loc 4 110 0
	subl	$1, %edx
.LVL160:
	.loc 4 111 0
	subl	%eax, %r9d
.LVL161:
.L90:
	.loc 4 102 0 discriminator 2
	cmpq	%rsi, %r8
	movq	%rsi, %r12
	jne	.L116
	.loc 4 169 0
	popq	%rbx
	.cfi_remember_state
	.cfi_restore 3
	.cfi_def_cfa_offset 40
.LVL162:
	popq	%rsi
	.cfi_restore 4
	.cfi_def_cfa_offset 32
.LVL163:
	popq	%rdi
	.cfi_restore 5
	.cfi_def_cfa_offset 24
	popq	%rbp
	.cfi_restore 6
	.cfi_def_cfa_offset 16
	popq	%r12
	.cfi_restore 12
	.cfi_def_cfa_offset 8
.LVL164:
	ret
.LVL165:
	.p2align 4,,10
.L114:
	.cfi_restore_state
	.loc 4 86 0
	movl	%r9d, %esi
	movl	%edx, %r9d
.LVL166:
	negl	%eax
.LVL167:
	movl	%esi, %edx
.LVL168:
	movl	%ecx, %esi
.LVL169:
	movl	%r8d, %ecx
.LVL170:
	movl	%esi, %r8d
.LVL171:
	jmp	.L88
	.cfi_endproc
.LFE19:
	.seh_endproc
	.p2align 4,,15
	.globl	put_char
	.def	put_char;	.scl	2;	.type	32;	.endef
	.seh_proc	put_char
put_char:
.LFB20:
	.loc 4 180 0
	.cfi_startproc
.LVL172:
	.seh_endprologue
.LVL173:
	leaq	font(%rip), %r9
	imulq	$10400, %rdx, %rdx
.LVL174:
	.loc 4 187 0
	movzbl	%r8b, %r8d
	leal	(%r8,%r8,2), %eax
	leal	(%r8,%rax,4), %eax
	cltq
.LVL175:
	leaq	(%rax,%r9), %r10
	leaq	8(%rdx,%rcx,8), %rcx
.LVL176:
	movq	video_buffer(%rip), %rdx
	leaq	13(%r9,%rax), %r11
	leaq	(%rdx,%rcx,2), %r8
.LVL177:
	.p2align 4,,10
.L120:
	.loc 4 194 0
	movzbl	(%r10), %r9d
.LVL178:
	leaq	-16(%r8), %rdx
	.loc 4 196 0
	movl	$-128, %eax
	jmp	.L119
.LVL179:
	.p2align 4,,10
.L118:
	addq	$2, %rdx
	.loc 4 202 0 discriminator 2
	shrb	%al
.LVL180:
	.loc 4 197 0 discriminator 2
	cmpq	%r8, %rdx
	je	.L123
.LVL181:
.L119:
	.loc 4 198 0
	movl	%r9d, %ecx
	andl	%eax, %ecx
	cmpb	%al, %cl
	jne	.L118
.LVL182:
.LBB108:
.LBB109:
	.loc 4 38 0
	movb	$-128, (%rdx)
	addq	$2, %rdx
.LBE109:
.LBE108:
	.loc 4 202 0
	shrb	%al
.LVL183:
.LBB111:
.LBB110:
	.loc 4 38 0
	movb	$0, -1(%rdx)
.LVL184:
.LBE110:
.LBE111:
	.loc 4 197 0
	cmpq	%r8, %rdx
	jne	.L119
.LVL185:
.L123:
	leaq	1600(%rdx), %r8
	addq	$1, %r10
.LVL186:
	.loc 4 193 0 discriminator 2
	cmpq	%r11, %r10
	jne	.L120
	.loc 4 206 0
	ret
	.cfi_endproc
.LFE20:
	.seh_endproc
	.p2align 4,,15
	.globl	put_string
	.def	put_string;	.scl	2;	.type	32;	.endef
	.seh_proc	put_string
put_string:
.LFB21:
	.loc 4 211 0
	.cfi_startproc
.LVL187:
	pushq	%rsi
	.seh_pushreg	%rsi
	.cfi_def_cfa_offset 16
	.cfi_offset 4, -16
	pushq	%rbx
	.seh_pushreg	%rbx
	.cfi_def_cfa_offset 24
	.cfi_offset 3, -24
	subq	$40, %rsp
	.seh_stackalloc	40
	.cfi_def_cfa_offset 64
	.seh_endprologue
.LVL188:
	.loc 4 213 0
	movl	$1, %ebx
	.loc 4 211 0
	movq	%rcx, %rsi
	.loc 4 213 0
	jmp	.L125
.LVL189:
	.p2align 4,,10
.L132:
	.loc 4 220 0
	movq	$0, curx(%rip)
.LVL190:
.L127:
	addq	$1, %rbx
.LVL191:
.L125:
	.loc 4 213 0
	movzbl	-1(%rsi,%rbx), %r8d
	testb	%r8b, %r8b
	je	.L130
	.loc 4 214 0
	cmpb	$10, %r8b
	je	.L131
	.loc 4 219 0
	cmpb	$13, %r8b
	je	.L132
	.loc 4 224 0
	movq	cury(%rip), %rdx
	movq	curx(%rip), %rcx
	call	put_char
.LVL192:
	.loc 4 227 0
	movq	cury(%rip), %rax
	.loc 4 226 0
	addq	$1, curx(%rip)
	.loc 4 227 0
	cmpq	$79, %rax
	jbe	.L127
	.loc 4 228 0
	movq	$0, curx(%rip)
	.loc 4 229 0
	addq	$1, %rax
	movq	%rax, cury(%rip)
	jmp	.L127
.LVL193:
	.p2align 4,,10
.L131:
	.loc 4 215 0
	addq	$1, cury(%rip)
.LVL194:
	.loc 4 217 0
	jmp	.L127
.LVL195:
	.p2align 4,,10
.L130:
	.loc 4 232 0
	addq	$40, %rsp
	.cfi_def_cfa_offset 24
	popq	%rbx
	.cfi_restore 3
	.cfi_def_cfa_offset 16
.LVL196:
	popq	%rsi
	.cfi_restore 4
	.cfi_def_cfa_offset 8
.LVL197:
	ret
	.cfi_endproc
.LFE21:
	.seh_endproc
	.section .rdata,"dr"
.LC0:
	.ascii "malloc $req_mem\0"
.LC1:
	.ascii "0123456789ABCDEF\0"
.LC2:
	.ascii "unknown type\12\15\0"
.LC3:
	.ascii "free $req_mem\0"
	.text
	.p2align 4,,15
	.globl	put_number
	.def	put_number;	.scl	2;	.type	32;	.endef
	.seh_proc	put_number
put_number:
.LFB22:
	.loc 4 237 0
	.cfi_startproc
.LVL198:
	pushq	%rbx
	.seh_pushreg	%rbx
	.cfi_def_cfa_offset 16
	.cfi_offset 3, -16
	subq	$32, %rsp
	.seh_stackalloc	32
	.cfi_def_cfa_offset 48
	.seh_endprologue
.LVL199:
	.loc 4 242 0
	movq	memory_req_mem(%rip), %rax
.LBB112:
.LBB113:
	.loc 1 7 0
	leaq	.LC0(%rip), %rbx
.LBE113:
.LBE112:
	.loc 4 242 0
	movq	$256, (%rax)
.LVL200:
.LBB116:
.LBB114:
	.loc 1 7 0
	movq	memory(%rip), %rax
/APP
 # 7 "D:/WORK/BUILD/OS/dcooos/kernel64/syscall.h" 1
	int $0x80
 # 0 "" 2
/NO_APP
.LBE114:
.LBE116:
	.loc 4 247 0
	cmpb	$100, %dl
.LBB117:
.LBB115:
	.loc 1 7 0
	movq	%rax, %rbx
.LVL201:
.LBE115:
.LBE117:
	.loc 4 245 0
	movb	$0, 255(%rax)
	.loc 4 247 0
	je	.L145
	.loc 4 257 0
	cmpb	$104, %dl
	je	.L146
	.loc 4 272 0
	leaq	.LC2(%rip), %rcx
.LVL202:
	call	put_string
.LVL203:
	movl	$255, %ecx
.LVL204:
.L136:
	.loc 4 274 0
	addq	%rbx, %rcx
	call	put_string
.LVL205:
	.loc 4 276 0
	movq	memory_req_mem(%rip), %rax
	movq	%rbx, (%rax)
.LVL206:
.LBB118:
.LBB119:
	.loc 1 7 0
	leaq	.LC3(%rip), %rbx
.LVL207:
	movq	memory(%rip), %rax
.LVL208:
/APP
 # 7 "D:/WORK/BUILD/OS/dcooos/kernel64/syscall.h" 1
	int $0x80
 # 0 "" 2
.LVL209:
/NO_APP
.LBE119:
.LBE118:
	.loc 4 279 0
	addq	$32, %rsp
	.cfi_remember_state
	.cfi_def_cfa_offset 16
	popq	%rbx
	.cfi_restore 3
	.cfi_def_cfa_offset 8
	ret
.LVL210:
	.p2align 4,,10
.L146:
	.cfi_restore_state
	.loc 4 258 0
	testq	%rcx, %rcx
	je	.L143
	leaq	.LC1(%rip), %r8
	movl	$253, %edx
.LVL211:
	.p2align 4,,10
.L140:
	.loc 4 263 0
	movq	%rcx, %rax
	.loc 4 264 0
	shrq	$4, %rcx
.LVL212:
	.loc 4 263 0
	andl	$15, %eax
	movzbl	(%r8,%rax), %eax
	movb	%al, 1(%rdx,%rbx)
	.loc 4 265 0
	movl	%edx, %eax
.LVL213:
	subq	$1, %rdx
.LVL214:
	.loc 4 262 0
	testq	%rcx, %rcx
	jne	.L140
	movslq	%eax, %rcx
.LVL215:
	addq	$1, %rcx
	jmp	.L136
.LVL216:
	.p2align 4,,10
.L145:
	.loc 4 248 0
	testq	%rcx, %rcx
	jne	.L147
.L143:
	.loc 4 259 0
	movb	$48, 254(%rbx)
.LVL217:
	movl	$254, %ecx
.LVL218:
	jmp	.L136
.LVL219:
	.p2align 4,,10
.L147:
	.loc 4 253 0
	movabsq	$-3689348814741910323, %r9
	movl	$253, %r8d
.LVL220:
	.p2align 4,,10
.L137:
	movq	%rcx, %rax
	mulq	%r9
	shrq	$3, %rdx
	leaq	(%rdx,%rdx,4), %rax
	addq	%rax, %rax
	subq	%rax, %rcx
.LVL221:
	.loc 4 255 0
	movl	%r8d, %eax
	subq	$1, %r8
.LVL222:
	.loc 4 253 0
	addl	$48, %ecx
	movb	%cl, 2(%r8,%rbx)
	.loc 4 252 0
	testq	%rdx, %rdx
	.loc 4 254 0
	movq	%rdx, %rcx
.LVL223:
	.loc 4 252 0
	jne	.L137
	movslq	%eax, %rcx
	addq	$1, %rcx
	jmp	.L136
	.cfi_endproc
.LFE22:
	.seh_endproc
	.p2align 4,,15
	.globl	put_box
	.def	put_box;	.scl	2;	.type	32;	.endef
	.seh_proc	put_box
put_box:
.LFB23:
	.loc 4 281 0
	.cfi_startproc
.LVL224:
	pushq	%r12
	.seh_pushreg	%r12
	.cfi_def_cfa_offset 16
	.cfi_offset 12, -16
	pushq	%rbp
	.seh_pushreg	%rbp
	.cfi_def_cfa_offset 24
	.cfi_offset 6, -24
	pushq	%rdi
	.seh_pushreg	%rdi
	.cfi_def_cfa_offset 32
	.cfi_offset 5, -32
	pushq	%rsi
	.seh_pushreg	%rsi
	.cfi_def_cfa_offset 40
	.cfi_offset 4, -40
	pushq	%rbx
	.seh_pushreg	%rbx
	.cfi_def_cfa_offset 48
	.cfi_offset 3, -48
	subq	$48, %rsp
	.seh_stackalloc	48
	.cfi_def_cfa_offset 96
	.seh_endprologue
	.loc 4 281 0
	movzwl	128(%rsp), %ebp
.LVL225:
	movq	%r9, %rsi
	movq	%r8, %rdi
	movq	%rdx, %r12
.LVL226:
	.loc 4 282 0
	movw	%bp, 32(%rsp)
	movl	%edx, %r9d
.LVL227:
	.loc 4 281 0
	movq	%rcx, %rbx
	.loc 4 282 0
	call	put_line
.LVL228:
	.loc 4 283 0
	movl	%esi, %r9d
	movl	%edi, %r8d
	movl	%r12d, %edx
	movl	%edi, %ecx
	movw	%bp, 32(%rsp)
	call	put_line
.LVL229:
	.loc 4 284 0
	movl	%esi, %r9d
	movl	%ebx, %r8d
	movl	%r12d, %edx
	movl	%ebx, %ecx
	movw	%bp, 32(%rsp)
	call	put_line
.LVL230:
	.loc 4 285 0
	movl	%esi, %r9d
	movl	%edi, %r8d
	movl	%esi, %edx
	movl	%ebx, %ecx
	movw	%bp, 128(%rsp)
	.loc 4 286 0
	addq	$48, %rsp
	.cfi_def_cfa_offset 48
	popq	%rbx
	.cfi_restore 3
	.cfi_def_cfa_offset 40
.LVL231:
	popq	%rsi
	.cfi_restore 4
	.cfi_def_cfa_offset 32
.LVL232:
	popq	%rdi
	.cfi_restore 5
	.cfi_def_cfa_offset 24
.LVL233:
	popq	%rbp
	.cfi_restore 6
	.cfi_def_cfa_offset 16
.LVL234:
	popq	%r12
	.cfi_restore 12
	.cfi_def_cfa_offset 8
.LVL235:
	.loc 4 285 0
	jmp	put_line
.LVL236:
	.cfi_endproc
.LFE23:
	.seh_endproc
	.p2align 4,,15
	.globl	put_pixel_callback
	.def	put_pixel_callback;	.scl	2;	.type	32;	.endef
	.seh_proc	put_pixel_callback
put_pixel_callback:
.LFB24:
	.loc 4 288 0
	.cfi_startproc
.LVL237:
	subq	$56, %rsp
	.seh_stackalloc	56
	.cfi_def_cfa_offset 64
	.seh_endprologue
	.loc 4 293 0
	movl	$128, %eax
	movl	$200, %edx
.LVL238:
	movl	$200, %ecx
	movl	$400, %r9d
	movl	$400, %r8d
	movw	%ax, 32(%rsp)
	call	put_box
	nop
.LVL239:
	.loc 4 294 0
	addq	$56, %rsp
	.cfi_def_cfa_offset 8
	ret
	.cfi_endproc
.LFE24:
	.seh_endproc
	.section .rdata,"dr"
.LC4:
	.ascii "\1\1\1\1\1\1\1\1\0"
	.text
	.p2align 4,,15
	.globl	make_blur
	.def	make_blur;	.scl	2;	.type	32;	.endef
	.seh_proc	make_blur
make_blur:
.LFB25:
	.loc 4 296 0
	.cfi_startproc
	.seh_endprologue
.LVL240:
	.loc 4 300 0
/APP
 # 300 "D:\WORK\BUILD\OS\dcooos\video\video.c" 1
	movq .LC4(%rip), %mm0
 # 0 "" 2
.LVL241:
/NO_APP
	movq	video_buffer(%rip), %rax
	leaq	1920000(%rax), %rdx
.LVL242:
	.p2align 4,,10
.L151:
	.loc 4 303 0 discriminator 3
/APP
 # 303 "D:\WORK\BUILD\OS\dcooos\video\video.c" 1
	movq   (%rax), %mm1
psubusb    %mm0, %mm1
movq   %mm1, (%rax)
 # 0 "" 2
/NO_APP
	addq	$8, %rax
	.loc 4 302 0 discriminator 3
	cmpq	%rdx, %rax
	jne	.L151
	.loc 4 307 0
	ret
	.cfi_endproc
.LFE25:
	.seh_endproc
	.p2align 4,,15
	.globl	show_video_buffer
	.def	show_video_buffer;	.scl	2;	.type	32;	.endef
	.seh_proc	show_video_buffer
show_video_buffer:
.LFB26:
	.loc 4 309 0
	.cfi_startproc
	.seh_endprologue
.LVL243:
	.loc 4 317 0
	movq	video_tmp_buffer(%rip), %r8
.LVL244:
	movq	video_buffer(%rip), %rcx
	movq	video_bg_buffer(%rip), %rdx
	leaq	1920000(%r8), %rax
	addq	$1920000, %rcx
	addq	$1920000, %rdx
.LVL245:
	.p2align 4,,10
.L154:
	.loc 4 319 0 discriminator 3
/APP
 # 319 "D:\WORK\BUILD\OS\dcooos\video\video.c" 1
	movd   (%rcx), %mm0
movd   (%rdx), %mm1
paddusb  %mm1, %mm0
movd   %mm0, (%rax)
 # 0 "" 2
/NO_APP
	subq	$8, %rax
	subq	$8, %rcx
	subq	$8, %rdx
	.loc 4 318 0 discriminator 3
	cmpq	%r8, %rax
	jne	.L154
	leaq	vbe_lfb(%rip), %rcx
	movl	$1920000, %eax
	.p2align 4,,10
.L155:
	.loc 4 336 0 discriminator 3
	movq	(%rcx), %rdx
/APP
 # 336 "D:\WORK\BUILD\OS\dcooos\video\video.c" 1
	movd   (%r8,%rax), %mm0
movd   %mm0, (%rdx,%rax)
 # 0 "" 2
	.loc 4 335 0 discriminator 3
/NO_APP
	subq	$8, %rax
	jne	.L155
	.loc 4 340 0
	ret
	.cfi_endproc
.LFE26:
	.seh_endproc
	.p2align 4,,15
	.globl	video_print_callback
	.def	video_print_callback;	.scl	2;	.type	32;	.endef
	.seh_proc	video_print_callback
video_print_callback:
.LFB28:
	.loc 4 446 0
	.cfi_startproc
.LVL246:
	subq	$40, %rsp
	.seh_stackalloc	40
	.cfi_def_cfa_offset 48
	.seh_endprologue
	movq	initDone(%rip), %rax
	.p2align 4,,10
.L159:
	.loc 4 447 0 discriminator 1
	cmpq	$1, %rax
	jne	.L159
	.loc 4 451 0
	movq	16(%rdx), %rcx
	call	put_string
	nop
.LVL247:
	.loc 4 454 0
	addq	$40, %rsp
	.cfi_def_cfa_offset 8
	.loc 4 453 0
	jmp	show_video_buffer
.LVL248:
	.cfi_endproc
.LFE28:
	.seh_endproc
	.p2align 4,,15
	.globl	copy_rect
	.def	copy_rect;	.scl	2;	.type	32;	.endef
	.seh_proc	copy_rect
copy_rect:
.LFB27:
	.loc 4 437 0
	.cfi_startproc
.LVL249:
	pushq	%rdi
	.seh_pushreg	%rdi
	.cfi_def_cfa_offset 16
	.cfi_offset 5, -16
	pushq	%rsi
	.seh_pushreg	%rsi
	.cfi_def_cfa_offset 24
	.cfi_offset 4, -24
	pushq	%rbx
	.seh_pushreg	%rbx
	.cfi_def_cfa_offset 32
	.cfi_offset 3, -32
	.seh_endprologue
.LVL250:
	movq	(%rcx), %r11
.LVL251:
	movq	16(%rcx), %rax
	movq	8(%r8), %r10
	.loc 4 439 0
	movq	24(%r8), %rsi
	movq	(%r8), %rbx
.LVL252:
	subq	%r11, %rax
	movq	16(%r8), %r8
.LVL253:
	leaq	(%rax,%rax), %rdi
	imulq	8(%rcx), %rax
	subq	%r10, %rsi
	leaq	(%r10,%r10,4), %r10
.LVL254:
	leaq	(%r10,%r10,4), %r10
	subq	%rbx, %r8
	salq	$5, %r10
	addq	%r8, %r8
	addq	%rbx, %r10
	leaq	(%r9,%r10,2), %rbx
.LVL255:
	addq	%r11, %rax
	xorl	%r10d, %r10d
	leaq	(%rdx,%rax,2), %r11
.LVL256:
	.p2align 4,,10
.L163:
.LBB120:
.LBB121:
	.loc 2 9 0 discriminator 3
	xorl	%eax, %eax
	testq	%r8, %r8
	movzbl	(%rbx), %r9d
	movzbl	(%r11), %ecx
	je	.L166
.LVL257:
	.p2align 4,,10
.L167:
	.loc 2 10 0
	movzbl	(%rax,%r9), %edx
	addq	$1, %rax
.LVL258:
	movb	%dl, -1(%rax,%rcx)
.LVL259:
	.loc 2 9 0
	cmpq	%r8, %rax
	jne	.L167
.LVL260:
.L166:
.LBE121:
.LBE120:
	.loc 4 439 0
	addq	$1, %r10
.LVL261:
	addq	$1600, %rbx
	addq	%rdi, %r11
	cmpq	%rsi, %r10
	jbe	.L163
	.loc 4 444 0
	popq	%rbx
	.cfi_restore 3
	.cfi_def_cfa_offset 24
	popq	%rsi
	.cfi_restore 4
	.cfi_def_cfa_offset 16
	popq	%rdi
	.cfi_restore 5
	.cfi_def_cfa_offset 8
	ret
	.cfi_endproc
.LFE27:
	.seh_endproc
	.section .rdata,"dr"
.LC5:
	.ascii "find_object log\0"
.LC6:
	.ascii "print \"OBJECT VIDEO EXECUTE\"\0"
	.align 8
.LC7:
	.ascii "print \"OBJECT VIDEO: making video object\"\0"
	.align 8
.LC8:
	.ascii "create video {C8283DA0-87A6-69CF-AF16-48616423}\0"
.LC9:
	.ascii "new_property tmp 8\0"
.LC10:
	.ascii "new_method putpixel $tmp\0"
.LC11:
	.ascii "new_method print $tmp\0"
	.align 8
.LC12:
	.ascii "print \"OBJECT VIDEO: added methods: test, putpixel, print\"\0"
.LC13:
	.ascii "find_object memory\0"
.LC14:
	.ascii "new_property req_mem 8\0"
	.align 8
.LC15:
	.ascii "print \"OBJECT VIDEO: require video memory 1024x768\"\0"
.LC16:
	.ascii "get_video_mem $req_mem\0"
	.align 8
.LC17:
	.ascii "print \"OBJECT VIDEO: require memory for buffers...\"\0"
	.align 8
.LC18:
	.ascii "print \"OBJECT VIDEO: video_buffer\"\0"
	.align 8
.LC19:
	.ascii "print \"OBJECT VIDEO: video_bg_buffer\"\0"
	.align 8
.LC20:
	.ascii "print \"OBJECT VIDEO: video_tmp_buffer\"\0"
	.align 8
.LC21:
	.ascii "print \"OBJECT VIDEO: printing hello message\"\0"
	.align 8
.LC22:
	.ascii "PIXITALIPHINA Operation system (c) 2009-2016\12\15\0"
	.align 8
.LC23:
	.ascii "print \"OBJECT VIDEO: draw some elements\"\0"
	.align 8
.LC24:
	.ascii "print \"OBJECT VIDEO: print test number 12345678\"\0"
	.align 8
.LC25:
	.ascii "print \"OBJECT VIDEO: show buffer\"\0"
.LC26:
	.ascii "\12\15\0"
	.align 8
.LC27:
	.ascii "print \"OBJECT VIDEO: now read background image..\"\0"
.LC28:
	.ascii "find_object fs\0"
.LC29:
	.ascii "fopen /BG\0"
.LC30:
	.ascii "fsize\0"
.LC31:
	.ascii "new_property data 8\0"
.LC32:
	.ascii "fread $data\0"
.LC33:
	.ascii "print \"TEST!!!\"\0"
.LC34:
	.ascii "find_object system\0"
.LC35:
	.ascii "\15counter: \0"
.LC36:
	.ascii "sleep 1\0"
	.text
	.p2align 4,,15
	.globl	initialize_object
	.def	initialize_object;	.scl	2;	.type	32;	.endef
	.seh_proc	initialize_object
initialize_object:
.LFB29:
	.loc 4 456 0
	.cfi_startproc
	pushq	%r15
	.seh_pushreg	%r15
	.cfi_def_cfa_offset 16
	.cfi_offset 15, -16
	pushq	%r14
	.seh_pushreg	%r14
	.cfi_def_cfa_offset 24
	.cfi_offset 14, -24
	pushq	%r13
	.seh_pushreg	%r13
	.cfi_def_cfa_offset 32
	.cfi_offset 13, -32
	pushq	%r12
	.seh_pushreg	%r12
	.cfi_def_cfa_offset 40
	.cfi_offset 12, -40
	pushq	%rbp
	.seh_pushreg	%rbp
	.cfi_def_cfa_offset 48
	.cfi_offset 6, -48
	pushq	%rdi
	.seh_pushreg	%rdi
	.cfi_def_cfa_offset 56
	.cfi_offset 5, -56
	pushq	%rsi
	.seh_pushreg	%rsi
	.cfi_def_cfa_offset 64
	.cfi_offset 4, -64
	pushq	%rbx
	.seh_pushreg	%rbx
	.cfi_def_cfa_offset 72
	.cfi_offset 3, -72
	subq	$184, %rsp
	.seh_stackalloc	184
	.cfi_def_cfa_offset 256
	.seh_endprologue
.LBB122:
.LBB123:
	.loc 1 7 0
	leaq	.LC5(%rip), %rbx
	xorl	%ecx, %ecx
.LBE123:
.LBE122:
	.loc 4 457 0
	movq	$0, initDone(%rip)
.LVL262:
.LBB126:
.LBB124:
	.loc 1 7 0
	movq	%rcx, %rax
/APP
 # 7 "D:/WORK/BUILD/OS/dcooos/kernel64/syscall.h" 1
	int $0x80
 # 0 "" 2
/NO_APP
.LBE124:
.LBE126:
.LBB127:
.LBB128:
	leaq	.LC6(%rip), %rbx
.LBE128:
.LBE127:
.LBB130:
.LBB125:
	movq	%rax, %rsi
.LVL263:
.LBE125:
.LBE130:
.LBB131:
.LBB129:
/APP
 # 7 "D:/WORK/BUILD/OS/dcooos/kernel64/syscall.h" 1
	int $0x80
 # 0 "" 2
.LVL264:
/NO_APP
.LBE129:
.LBE131:
.LBB132:
.LBB133:
	leaq	.LC7(%rip), %rbx
	movq	%rsi, %rax
/APP
 # 7 "D:/WORK/BUILD/OS/dcooos/kernel64/syscall.h" 1
	int $0x80
 # 0 "" 2
.LVL265:
/NO_APP
.LBE133:
.LBE132:
.LBB134:
.LBB135:
	leaq	.LC8(%rip), %rbx
	movq	%rcx, %rax
/APP
 # 7 "D:/WORK/BUILD/OS/dcooos/kernel64/syscall.h" 1
	int $0x80
 # 0 "" 2
/NO_APP
.LBE135:
.LBE134:
.LBB137:
.LBB138:
	leaq	.LC9(%rip), %rdx
.LBE138:
.LBE137:
.LBB141:
.LBB136:
	movq	%rax, %rcx
.LVL266:
.LBE136:
.LBE141:
.LBB142:
.LBB139:
	movq	%rdx, %rbx
/APP
 # 7 "D:/WORK/BUILD/OS/dcooos/kernel64/syscall.h" 1
	int $0x80
 # 0 "" 2
.LVL267:
/NO_APP
.LBE139:
.LBE142:
.LBB143:
.LBB144:
	leaq	.LC10(%rip), %rbx
.LBE144:
.LBE143:
.LBB146:
.LBB140:
	movq	%rax, %rdx
.LVL268:
.LBE140:
.LBE146:
.LBB147:
.LBB145:
	movq	%rcx, %rax
.LVL269:
/APP
 # 7 "D:/WORK/BUILD/OS/dcooos/kernel64/syscall.h" 1
	int $0x80
 # 0 "" 2
.LVL270:
/NO_APP
.LBE145:
.LBE147:
	.loc 4 482 0
	leaq	video_print_callback(%rip), %rax
	movq	%rax, (%rdx)
.LVL271:
.LBB148:
.LBB149:
	.loc 1 7 0
	leaq	.LC11(%rip), %rbx
	movq	%rcx, %rax
/APP
 # 7 "D:/WORK/BUILD/OS/dcooos/kernel64/syscall.h" 1
	int $0x80
 # 0 "" 2
.LVL272:
/NO_APP
.LBE149:
.LBE148:
	.loc 4 485 0
	leaq	2000(%rcx), %rdx
.LVL273:
	leaq	7000(%rcx), %rax
.LVL274:
.L173:
.LBB150:
.LBB151:
	.loc 2 18 0
	addq	$1, %rdx
.LVL275:
	movb	$-1, -1(%rdx)
.LVL276:
	.loc 2 17 0
	cmpq	%rdx, %rax
	jne	.L173
.LVL277:
.LBE151:
.LBE150:
.LBB152:
.LBB153:
	.loc 1 7 0
	leaq	.LC12(%rip), %rbx
	movq	%rsi, %rax
/APP
 # 7 "D:/WORK/BUILD/OS/dcooos/kernel64/syscall.h" 1
	int $0x80
 # 0 "" 2
.LVL278:
/NO_APP
.LBE153:
.LBE152:
.LBB154:
.LBB155:
	leaq	.LC13(%rip), %rdx
	xorl	%edi, %edi
	movq	%rdi, %rax
	movq	%rdx, %rbx
/APP
 # 7 "D:/WORK/BUILD/OS/dcooos/kernel64/syscall.h" 1
	int $0x80
 # 0 "" 2
/NO_APP
.LBE155:
.LBE154:
.LBB157:
.LBB158:
	leaq	.LC14(%rip), %rcx
.LVL279:
.LBE158:
.LBE157:
.LBB161:
.LBB156:
	movq	%rax, %rdx
.LVL280:
.LBE156:
.LBE161:
	.loc 4 491 0
	movq	%rax, memory(%rip)
.LVL281:
.LBB162:
.LBB159:
	.loc 1 7 0
	movq	%rcx, %rbx
/APP
 # 7 "D:/WORK/BUILD/OS/dcooos/kernel64/syscall.h" 1
	int $0x80
 # 0 "" 2
.LVL282:
/NO_APP
.LBE159:
.LBE162:
.LBB163:
.LBB164:
	leaq	.LC15(%rip), %rbx
.LBE164:
.LBE163:
.LBB166:
.LBB160:
	movq	%rax, %rcx
.LVL283:
.LBE160:
.LBE166:
	.loc 4 499 0
	movq	%rax, memory_req_mem(%rip)
.LVL284:
.LBB167:
.LBB165:
	.loc 1 7 0
	movq	%rsi, %rax
/APP
 # 7 "D:/WORK/BUILD/OS/dcooos/kernel64/syscall.h" 1
	int $0x80
 # 0 "" 2
.LVL285:
/NO_APP
.LBE165:
.LBE167:
.LBB168:
.LBB169:
	leaq	.LC16(%rip), %rbx
	movq	%rdx, %rax
/APP
 # 7 "D:/WORK/BUILD/OS/dcooos/kernel64/syscall.h" 1
	int $0x80
 # 0 "" 2
.LVL286:
/NO_APP
.LBE169:
.LBE168:
.LBB170:
.LBB171:
	leaq	.LC17(%rip), %rbx
.LBE171:
.LBE170:
	.loc 4 511 0
	movq	%rax, vbe_lfb(%rip)
.LVL287:
.LBB173:
.LBB172:
	.loc 1 7 0
	movq	%rsi, %rax
/APP
 # 7 "D:/WORK/BUILD/OS/dcooos/kernel64/syscall.h" 1
	int $0x80
 # 0 "" 2
.LVL288:
/NO_APP
.LBE172:
.LBE173:
.LBB174:
.LBB175:
	leaq	.LC18(%rip), %rbx
.LBE175:
.LBE174:
	.loc 4 516 0
	movq	$960100, (%rcx)
.LVL289:
.LBB177:
.LBB176:
	.loc 1 7 0
	movq	%rsi, %rax
/APP
 # 7 "D:/WORK/BUILD/OS/dcooos/kernel64/syscall.h" 1
	int $0x80
 # 0 "" 2
.LVL290:
/NO_APP
.LBE176:
.LBE177:
.LBB178:
.LBB179:
	leaq	.LC0(%rip), %rbp
	movq	%rdx, %rax
	movq	%rbp, %rbx
/APP
 # 7 "D:/WORK/BUILD/OS/dcooos/kernel64/syscall.h" 1
	int $0x80
 # 0 "" 2
/NO_APP
.LBE179:
.LBE178:
.LBB181:
.LBB182:
	leaq	.LC19(%rip), %rbx
.LBE182:
.LBE181:
.LBB184:
.LBB180:
	movq	%rax, %rcx
.LVL291:
.LBE180:
.LBE184:
	.loc 4 520 0
	movq	%rax, video_buffer(%rip)
.LVL292:
.LBB185:
.LBB183:
	.loc 1 7 0
	movq	%rsi, %rax
/APP
 # 7 "D:/WORK/BUILD/OS/dcooos/kernel64/syscall.h" 1
	int $0x80
 # 0 "" 2
.LVL293:
/NO_APP
.LBE183:
.LBE185:
.LBB186:
.LBB187:
	movq	%rdx, %rax
	movq	%rbp, %rbx
/APP
 # 7 "D:/WORK/BUILD/OS/dcooos/kernel64/syscall.h" 1
	int $0x80
 # 0 "" 2
.LVL294:
/NO_APP
.LBE187:
.LBE186:
.LBB188:
.LBB189:
	leaq	.LC20(%rip), %rbx
.LBE189:
.LBE188:
	.loc 4 524 0
	movq	%rax, video_bg_buffer(%rip)
.LVL295:
.LBB191:
.LBB190:
	.loc 1 7 0
	movq	%rsi, %rax
/APP
 # 7 "D:/WORK/BUILD/OS/dcooos/kernel64/syscall.h" 1
	int $0x80
 # 0 "" 2
.LVL296:
/NO_APP
.LBE190:
.LBE191:
.LBB192:
.LBB193:
	movq	%rdx, %rax
	movq	%rbp, %rbx
/APP
 # 7 "D:/WORK/BUILD/OS/dcooos/kernel64/syscall.h" 1
	int $0x80
 # 0 "" 2
.LVL297:
/NO_APP
.LBE193:
.LBE192:
.LBB194:
.LBB195:
	leaq	.LC21(%rip), %rbx
.LBE195:
.LBE194:
	.loc 4 528 0
	movq	%rax, video_tmp_buffer(%rip)
.LVL298:
.LBB198:
.LBB196:
	.loc 1 7 0
	movq	%rsi, %rax
.LBE196:
.LBE198:
	.loc 4 530 0
	movq	%rcx, 65536
.LVL299:
.LBB199:
.LBB197:
	.loc 1 7 0
/APP
 # 7 "D:/WORK/BUILD/OS/dcooos/kernel64/syscall.h" 1
	int $0x80
 # 0 "" 2
.LVL300:
/NO_APP
.LBE197:
.LBE199:
	.loc 4 535 0
	leaq	.LC22(%rip), %rcx
	call	put_string
.LVL301:
	.loc 4 536 0
	xorl	%edx, %edx
.LVL302:
.LBB200:
.LBB201:
	.loc 1 7 0
	movq	%rsi, %rax
	leaq	.LC23(%rip), %rbx
.LBE201:
.LBE200:
	.loc 4 536 0
	movb	$0, %dh
.LVL303:
.LBB203:
.LBB202:
	.loc 1 7 0
/APP
 # 7 "D:/WORK/BUILD/OS/dcooos/kernel64/syscall.h" 1
	int $0x80
 # 0 "" 2
.LVL304:
/NO_APP
.LBE202:
.LBE203:
	.loc 4 540 0
	movl	$14, %r9d
	movw	%dx, 32(%rsp)
	movl	$800, %r8d
	movl	$14, %edx
.LVL305:
.LBB204:
.LBB205:
	.loc 1 7 0
	leaq	.LC24(%rip), %r12
.LBE205:
.LBE204:
	.loc 4 540 0
	xorl	%ecx, %ecx
	call	put_line
.LVL306:
.LBB207:
.LBB206:
	.loc 1 7 0
	movq	%r12, %rbx
	movq	%rsi, %rax
/APP
 # 7 "D:/WORK/BUILD/OS/dcooos/kernel64/syscall.h" 1
	int $0x80
 # 0 "" 2
.LVL307:
/NO_APP
.LBE206:
.LBE207:
	.loc 4 545 0
	movl	$100, %edx
	movl	$1234567890, %ecx
	call	put_number
.LVL308:
.LBB208:
.LBB209:
	.loc 1 7 0
	leaq	.LC25(%rip), %rbx
	movq	%rsi, %rax
/APP
 # 7 "D:/WORK/BUILD/OS/dcooos/kernel64/syscall.h" 1
	int $0x80
 # 0 "" 2
.LVL309:
/NO_APP
.LBE209:
.LBE208:
	.loc 4 549 0
	call	show_video_buffer
.LVL310:
.LBB210:
.LBB211:
	.loc 1 7 0
	movq	%r12, %rbx
	movq	%rsi, %rax
/APP
 # 7 "D:/WORK/BUILD/OS/dcooos/kernel64/syscall.h" 1
	int $0x80
 # 0 "" 2
.LVL311:
/NO_APP
.LBE211:
.LBE210:
	.loc 4 553 0
	movl	$100, %edx
	movl	$1234567890, %ecx
	call	put_number
.LVL312:
	.loc 4 554 0
	leaq	.LC26(%rip), %rcx
	call	put_string
.LVL313:
.LBB212:
.LBB213:
	.loc 1 7 0
	leaq	.LC27(%rip), %rbx
	movq	%rsi, %rax
/APP
 # 7 "D:/WORK/BUILD/OS/dcooos/kernel64/syscall.h" 1
	int $0x80
 # 0 "" 2
.LVL314:
/NO_APP
.LBE213:
.LBE212:
.LBB214:
.LBB215:
	leaq	.LC28(%rip), %rdx
	movq	%rdi, %rax
	movq	%rdx, %rbx
/APP
 # 7 "D:/WORK/BUILD/OS/dcooos/kernel64/syscall.h" 1
	int $0x80
 # 0 "" 2
/NO_APP
.LBE215:
.LBE214:
.LBB217:
.LBB218:
	leaq	.LC29(%rip), %rbx
.LBE218:
.LBE217:
.LBB220:
.LBB216:
	movq	%rax, %rdx
.LVL315:
.LBE216:
.LBE220:
.LBB221:
.LBB219:
/APP
 # 7 "D:/WORK/BUILD/OS/dcooos/kernel64/syscall.h" 1
	int $0x80
 # 0 "" 2
.LVL316:
/NO_APP
.LBE219:
.LBE221:
.LBB222:
.LBB223:
	leaq	.LC30(%rip), %r9
	movq	%rdx, %rax
	movq	%r9, %rbx
/APP
 # 7 "D:/WORK/BUILD/OS/dcooos/kernel64/syscall.h" 1
	int $0x80
 # 0 "" 2
/NO_APP
.LBE223:
.LBE222:
	.loc 4 569 0
	leaq	100(%rax), %rcx
.LBB225:
.LBB224:
	.loc 1 7 0
	movq	%rax, %r9
.LVL317:
.LBE224:
.LBE225:
	.loc 4 569 0
	movq	memory_req_mem(%rip), %rax
.LBB226:
.LBB227:
	.loc 1 7 0
	movq	%rbp, %rbx
.LBE227:
.LBE226:
	.loc 4 569 0
	movq	%rcx, (%rax)
.LVL318:
.LBB230:
.LBB228:
	.loc 1 7 0
	movq	memory(%rip), %rax
/APP
 # 7 "D:/WORK/BUILD/OS/dcooos/kernel64/syscall.h" 1
	int $0x80
 # 0 "" 2
/NO_APP
.LBE228:
.LBE230:
.LBB231:
.LBB232:
	leaq	.LC31(%rip), %rbx
.LBE232:
.LBE231:
.LBB234:
.LBB229:
	movq	%rax, %rcx
.LVL319:
.LBE229:
.LBE234:
.LBB235:
.LBB233:
	movq	%rdx, %rax
.LVL320:
/APP
 # 7 "D:/WORK/BUILD/OS/dcooos/kernel64/syscall.h" 1
	int $0x80
 # 0 "" 2
.LVL321:
/NO_APP
.LBE233:
.LBE235:
	.loc 4 574 0
	movq	%rcx, (%rax)
	.loc 4 575 0
/APP
 # 575 "D:\WORK\BUILD\OS\dcooos\video\video.c" 1
	xchg %bx, %bx
 # 0 "" 2
.LVL322:
/NO_APP
.LBB236:
.LBB237:
	.loc 1 7 0
	leaq	.LC32(%rip), %rbx
	movq	%rdx, %rax
.LVL323:
/APP
 # 7 "D:/WORK/BUILD/OS/dcooos/kernel64/syscall.h" 1
	int $0x80
 # 0 "" 2
.LVL324:
/NO_APP
.LBE237:
.LBE236:
	.loc 4 577 0
	movq	video_bg_buffer(%rip), %rdx
.LVL325:
	leaq	960000(%rdx), %rax
.LVL326:
.L174:
.LBB238:
.LBB239:
	.loc 2 18 0
	addq	$1, %rdx
.LVL327:
	movb	$0, -1(%rdx)
.LVL328:
	.loc 2 17 0
	cmpq	%rax, %rdx
	jne	.L174
.LVL329:
.LBE239:
.LBE238:
	.loc 4 590 0
	call	show_video_buffer
.LVL330:
.LBB240:
.LBB241:
	.loc 1 7 0
	leaq	.LC33(%rip), %rbx
	movq	%rsi, %rax
.LBE241:
.LBE240:
	.loc 4 592 0
	movq	$1, initDone(%rip)
.LVL331:
.LBB243:
.LBB242:
	.loc 1 7 0
/APP
 # 7 "D:/WORK/BUILD/OS/dcooos/kernel64/syscall.h" 1
	int $0x80
 # 0 "" 2
.LVL332:
/NO_APP
.LBE242:
.LBE243:
	.loc 4 605 0
	movq	memory_req_mem(%rip), %rax
.LBB244:
.LBB245:
	.loc 1 7 0
	movq	%rbp, %rbx
.LBE245:
.LBE244:
	.loc 4 602 0
	movq	$0, 112(%rsp)
	movq	$0, 120(%rsp)
	movq	$100, 128(%rsp)
	movq	$100, 136(%rsp)
	.loc 4 605 0
	movq	%r9, (%rax)
.LVL333:
.LBB248:
.LBB246:
	.loc 1 7 0
	movq	memory(%rip), %rax
.LBE246:
.LBE248:
	.loc 4 603 0
	movq	$100, 144(%rsp)
	movq	$100, 152(%rsp)
	movq	$200, 160(%rsp)
	movq	$200, 168(%rsp)
.LBB249:
.LBB247:
	.loc 1 7 0
/APP
 # 7 "D:/WORK/BUILD/OS/dcooos/kernel64/syscall.h" 1
	int $0x80
 # 0 "" 2
/NO_APP
	movq	%rax, %rbp
.LVL334:
.LBE247:
.LBE249:
	.loc 4 608 0
	movl	$14335, %eax
.LVL335:
	movl	$100, %r9d
	movw	%ax, 32(%rsp)
	movl	$100, %r8d
	xorl	%edx, %edx
	xorl	%ecx, %ecx
	call	put_box
.LVL336:
.LBB250:
.LBB251:
	.loc 1 7 0
	leaq	.LC34(%rip), %rbx
	xorl	%eax, %eax
/APP
 # 7 "D:/WORK/BUILD/OS/dcooos/kernel64/syscall.h" 1
	int $0x80
 # 0 "" 2
/NO_APP
	leaq	video_tmp_buffer(%rip), %r14
	movq	%rax, %rdi
.LVL337:
.LBE251:
.LBE250:
	.loc 4 599 0
	xorl	%esi, %esi
.LVL338:
	leaq	48(%rsp), %r15
	leaq	80(%rsp), %r13
	leaq	.LC36(%rip), %rbx
	.loc 4 617 0
	leaq	.LC35(%rip), %r12
.LVL339:
	.p2align 4,,10
.L175:
	.loc 4 615 0 discriminator 1
	movq	(%r14), %rdx
	movq	%rbp, %r9
	movq	%r15, %r8
	movq	%r13, %rcx
	movq	144(%rsp), %rax
	.loc 4 616 0 discriminator 1
	addq	$1, %rsi
.LVL340:
	.loc 4 615 0 discriminator 1
	movq	%rax, 80(%rsp)
	movq	152(%rsp), %rax
	movq	%rax, 88(%rsp)
	movq	160(%rsp), %rax
	movq	%rax, 96(%rsp)
	movq	168(%rsp), %rax
	movq	%rax, 104(%rsp)
	movq	112(%rsp), %rax
	movq	%rax, 48(%rsp)
	movq	120(%rsp), %rax
	movq	%rax, 56(%rsp)
	movq	128(%rsp), %rax
	movq	%rax, 64(%rsp)
	movq	136(%rsp), %rax
	movq	%rax, 72(%rsp)
	call	copy_rect
.LVL341:
	.loc 4 617 0 discriminator 1
	movq	%r12, %rcx
	call	put_string
.LVL342:
	.loc 4 618 0 discriminator 1
	movl	$100, %edx
	movq	%rsi, %rcx
	call	put_number
.LVL343:
	.loc 4 619 0 discriminator 1
	call	show_video_buffer
.LVL344:
.LBB252:
.LBB253:
	.loc 1 7 0 discriminator 1
	movq	%rdi, %rax
/APP
 # 7 "D:/WORK/BUILD/OS/dcooos/kernel64/syscall.h" 1
	int $0x80
 # 0 "" 2
.LVL345:
/NO_APP
	jmp	.L175
.LBE253:
.LBE252:
	.cfi_endproc
.LFE29:
	.seh_endproc
	.comm	memory, 8, 3
	.globl	cury
	.data
	.align 8
cury:
	.quad	1
	.globl	curx
	.align 8
curx:
	.quad	1
	.comm	video_tmp_buffer, 8, 3
	.comm	video_bg_buffer, 8, 3
	.comm	video_buffer, 8, 3
	.comm	initDone, 8, 3
	.comm	memory_req_mem, 8, 3
	.comm	obj_memory, 8, 3
	.comm	vbe_lfb, 8, 3
	.globl	font
	.align 32
font:
	.byte	0
	.byte	0
	.byte	-2
	.byte	-110
	.byte	16
	.byte	16
	.byte	30
	.byte	17
	.byte	17
	.byte	21
	.byte	22
	.byte	0
	.byte	0
	.byte	0
	.byte	0
	.byte	-2
	.byte	-110
	.byte	16
	.byte	16
	.byte	30
	.byte	17
	.byte	17
	.byte	21
	.byte	22
	.byte	0
	.byte	0
	.byte	0
	.byte	0
	.byte	-2
	.byte	-110
	.byte	16
	.byte	16
	.byte	30
	.byte	17
	.byte	17
	.byte	21
	.byte	22
	.byte	0
	.byte	0
	.byte	0
	.byte	0
	.byte	-2
	.byte	-110
	.byte	16
	.byte	16
	.byte	30
	.byte	17
	.byte	17
	.byte	21
	.byte	22
	.byte	0
	.byte	0
	.byte	0
	.byte	0
	.byte	-2
	.byte	-110
	.byte	16
	.byte	16
	.byte	30
	.byte	17
	.byte	17
	.byte	21
	.byte	22
	.byte	0
	.byte	0
	.byte	0
	.byte	0
	.byte	-2
	.byte	-110
	.byte	16
	.byte	16
	.byte	30
	.byte	17
	.byte	17
	.byte	21
	.byte	22
	.byte	0
	.byte	0
	.byte	0
	.byte	0
	.byte	-2
	.byte	-110
	.byte	16
	.byte	16
	.byte	30
	.byte	17
	.byte	17
	.byte	21
	.byte	22
	.byte	0
	.byte	0
	.byte	0
	.byte	0
	.byte	-2
	.byte	-110
	.byte	16
	.byte	16
	.byte	30
	.byte	17
	.byte	17
	.byte	21
	.byte	22
	.byte	0
	.byte	0
	.byte	0
	.byte	0
	.byte	-2
	.byte	-110
	.byte	16
	.byte	16
	.byte	30
	.byte	17
	.byte	17
	.byte	21
	.byte	22
	.byte	0
	.byte	0
	.byte	0
	.byte	0
	.byte	-2
	.byte	-110
	.byte	16
	.byte	16
	.byte	30
	.byte	17
	.byte	17
	.byte	21
	.byte	22
	.byte	0
	.byte	0
	.byte	0
	.byte	0
	.byte	-2
	.byte	-110
	.byte	16
	.byte	16
	.byte	30
	.byte	17
	.byte	17
	.byte	21
	.byte	22
	.byte	0
	.byte	0
	.byte	0
	.byte	0
	.byte	-2
	.byte	-110
	.byte	16
	.byte	16
	.byte	30
	.byte	17
	.byte	17
	.byte	21
	.byte	22
	.byte	0
	.byte	0
	.byte	0
	.byte	0
	.byte	-2
	.byte	-110
	.byte	16
	.byte	16
	.byte	30
	.byte	17
	.byte	17
	.byte	21
	.byte	22
	.byte	0
	.byte	0
	.byte	0
	.byte	0
	.byte	-2
	.byte	-110
	.byte	16
	.byte	16
	.byte	30
	.byte	17
	.byte	17
	.byte	21
	.byte	22
	.byte	0
	.byte	0
	.byte	0
	.byte	0
	.byte	-2
	.byte	-110
	.byte	16
	.byte	16
	.byte	30
	.byte	17
	.byte	17
	.byte	21
	.byte	22
	.byte	0
	.byte	0
	.byte	0
	.byte	0
	.byte	-2
	.byte	-110
	.byte	16
	.byte	16
	.byte	30
	.byte	17
	.byte	17
	.byte	21
	.byte	22
	.byte	0
	.byte	0
	.byte	0
	.byte	0
	.byte	-2
	.byte	-110
	.byte	16
	.byte	16
	.byte	30
	.byte	17
	.byte	17
	.byte	21
	.byte	22
	.byte	0
	.byte	0
	.byte	0
	.byte	0
	.byte	-2
	.byte	-110
	.byte	16
	.byte	16
	.byte	30
	.byte	17
	.byte	17
	.byte	21
	.byte	22
	.byte	0
	.byte	0
	.byte	0
	.byte	0
	.byte	-2
	.byte	-110
	.byte	16
	.byte	16
	.byte	30
	.byte	17
	.byte	17
	.byte	21
	.byte	22
	.byte	0
	.byte	0
	.byte	0
	.byte	0
	.byte	-2
	.byte	-110
	.byte	16
	.byte	16
	.byte	30
	.byte	17
	.byte	17
	.byte	21
	.byte	22
	.byte	0
	.byte	0
	.byte	0
	.byte	0
	.byte	-2
	.byte	-110
	.byte	16
	.byte	16
	.byte	30
	.byte	17
	.byte	17
	.byte	21
	.byte	22
	.byte	0
	.byte	0
	.byte	0
	.byte	0
	.byte	-2
	.byte	-110
	.byte	16
	.byte	16
	.byte	30
	.byte	17
	.byte	17
	.byte	21
	.byte	22
	.byte	0
	.byte	0
	.byte	0
	.byte	0
	.byte	-2
	.byte	-110
	.byte	16
	.byte	16
	.byte	30
	.byte	17
	.byte	17
	.byte	21
	.byte	22
	.byte	0
	.byte	0
	.byte	0
	.byte	0
	.byte	-2
	.byte	-110
	.byte	16
	.byte	16
	.byte	30
	.byte	17
	.byte	17
	.byte	21
	.byte	22
	.byte	0
	.byte	0
	.byte	0
	.byte	0
	.byte	-2
	.byte	-110
	.byte	16
	.byte	16
	.byte	30
	.byte	17
	.byte	17
	.byte	21
	.byte	22
	.byte	0
	.byte	0
	.byte	0
	.byte	0
	.byte	-2
	.byte	-110
	.byte	16
	.byte	16
	.byte	30
	.byte	17
	.byte	17
	.byte	21
	.byte	22
	.byte	0
	.byte	0
	.byte	0
	.byte	0
	.byte	-2
	.byte	-110
	.byte	16
	.byte	16
	.byte	30
	.byte	17
	.byte	17
	.byte	21
	.byte	22
	.byte	0
	.byte	0
	.byte	0
	.byte	0
	.byte	-2
	.byte	-110
	.byte	16
	.byte	16
	.byte	30
	.byte	17
	.byte	17
	.byte	21
	.byte	22
	.byte	0
	.byte	0
	.byte	0
	.byte	0
	.byte	-2
	.byte	-110
	.byte	16
	.byte	16
	.byte	30
	.byte	17
	.byte	17
	.byte	21
	.byte	22
	.byte	0
	.byte	0
	.byte	0
	.byte	0
	.byte	-2
	.byte	-110
	.byte	16
	.byte	16
	.byte	30
	.byte	17
	.byte	17
	.byte	21
	.byte	22
	.byte	0
	.byte	0
	.byte	0
	.byte	0
	.byte	-2
	.byte	-110
	.byte	16
	.byte	16
	.byte	30
	.byte	17
	.byte	17
	.byte	21
	.byte	22
	.byte	0
	.byte	0
	.byte	0
	.byte	0
	.byte	-2
	.byte	-110
	.byte	16
	.byte	16
	.byte	30
	.byte	17
	.byte	17
	.byte	21
	.byte	22
	.byte	0
	.byte	0
	.byte	0
	.byte	0
	.byte	0
	.byte	0
	.byte	0
	.byte	0
	.byte	0
	.byte	0
	.byte	0
	.byte	0
	.byte	0
	.byte	0
	.byte	0
	.byte	0
	.byte	0
	.byte	8
	.byte	8
	.byte	8
	.byte	8
	.byte	8
	.byte	8
	.byte	8
	.byte	0
	.byte	8
	.byte	0
	.byte	0
	.byte	0
	.byte	0
	.byte	20
	.byte	20
	.byte	20
	.byte	0
	.byte	0
	.byte	0
	.byte	0
	.byte	0
	.byte	0
	.byte	0
	.byte	0
	.byte	0
	.byte	0
	.byte	10
	.byte	10
	.byte	63
	.byte	20
	.byte	20
	.byte	20
	.byte	126
	.byte	40
	.byte	40
	.byte	0
	.byte	0
	.byte	0
	.byte	0
	.byte	8
	.byte	28
	.byte	34
	.byte	32
	.byte	28
	.byte	2
	.byte	34
	.byte	28
	.byte	8
	.byte	0
	.byte	0
	.byte	0
	.byte	0
	.byte	32
	.byte	81
	.byte	34
	.byte	4
	.byte	8
	.byte	16
	.byte	34
	.byte	69
	.byte	2
	.byte	0
	.byte	0
	.byte	0
	.byte	0
	.byte	24
	.byte	32
	.byte	32
	.byte	16
	.byte	48
	.byte	73
	.byte	74
	.byte	68
	.byte	59
	.byte	0
	.byte	0
	.byte	0
	.byte	0
	.byte	8
	.byte	8
	.byte	8
	.byte	0
	.byte	0
	.byte	0
	.byte	0
	.byte	0
	.byte	0
	.byte	0
	.byte	0
	.byte	0
	.byte	0
	.byte	4
	.byte	8
	.byte	8
	.byte	16
	.byte	16
	.byte	16
	.byte	16
	.byte	16
	.byte	8
	.byte	8
	.byte	4
	.byte	0
	.byte	0
	.byte	16
	.byte	8
	.byte	8
	.byte	4
	.byte	4
	.byte	4
	.byte	4
	.byte	4
	.byte	8
	.byte	8
	.byte	16
	.byte	0
	.byte	0
	.byte	0
	.byte	0
	.byte	54
	.byte	28
	.byte	127
	.byte	28
	.byte	54
	.byte	0
	.byte	0
	.byte	0
	.byte	0
	.byte	0
	.byte	0
	.byte	0
	.byte	0
	.byte	8
	.byte	8
	.byte	8
	.byte	127
	.byte	8
	.byte	8
	.byte	8
	.byte	0
	.byte	0
	.byte	0
	.byte	0
	.byte	0
	.byte	0
	.byte	0
	.byte	0
	.byte	0
	.byte	0
	.byte	0
	.byte	0
	.byte	8
	.byte	16
	.byte	0
	.byte	0
	.byte	0
	.byte	0
	.byte	0
	.byte	0
	.byte	0
	.byte	0
	.byte	127
	.byte	0
	.byte	0
	.byte	0
	.byte	0
	.byte	0
	.byte	0
	.byte	0
	.byte	0
	.byte	0
	.byte	0
	.byte	0
	.byte	0
	.byte	0
	.byte	0
	.byte	0
	.byte	8
	.byte	0
	.byte	0
	.byte	0
	.byte	0
	.byte	0
	.byte	1
	.byte	2
	.byte	4
	.byte	8
	.byte	16
	.byte	32
	.byte	64
	.byte	-128
	.byte	0
	.byte	0
	.byte	0
	.byte	0
	.byte	28
	.byte	34
	.byte	34
	.byte	34
	.byte	34
	.byte	34
	.byte	34
	.byte	34
	.byte	28
	.byte	0
	.byte	0
	.byte	0
	.byte	0
	.byte	8
	.byte	56
	.byte	8
	.byte	8
	.byte	8
	.byte	8
	.byte	8
	.byte	8
	.byte	62
	.byte	0
	.byte	0
	.byte	0
	.byte	0
	.byte	28
	.byte	34
	.byte	2
	.byte	2
	.byte	4
	.byte	8
	.byte	16
	.byte	32
	.byte	62
	.byte	0
	.byte	0
	.byte	0
	.byte	0
	.byte	28
	.byte	34
	.byte	2
	.byte	2
	.byte	12
	.byte	2
	.byte	2
	.byte	34
	.byte	28
	.byte	0
	.byte	0
	.byte	0
	.byte	0
	.byte	4
	.byte	12
	.byte	12
	.byte	20
	.byte	20
	.byte	36
	.byte	62
	.byte	4
	.byte	14
	.byte	0
	.byte	0
	.byte	0
	.byte	0
	.byte	62
	.byte	32
	.byte	32
	.byte	32
	.byte	60
	.byte	2
	.byte	2
	.byte	34
	.byte	28
	.byte	0
	.byte	0
	.byte	0
	.byte	0
	.byte	12
	.byte	16
	.byte	32
	.byte	32
	.byte	60
	.byte	34
	.byte	34
	.byte	34
	.byte	28
	.byte	0
	.byte	0
	.byte	0
	.byte	0
	.byte	62
	.byte	34
	.byte	2
	.byte	4
	.byte	4
	.byte	8
	.byte	8
	.byte	16
	.byte	16
	.byte	0
	.byte	0
	.byte	0
	.byte	0
	.byte	28
	.byte	34
	.byte	34
	.byte	34
	.byte	28
	.byte	34
	.byte	34
	.byte	34
	.byte	28
	.byte	0
	.byte	0
	.byte	0
	.byte	0
	.byte	28
	.byte	34
	.byte	34
	.byte	34
	.byte	30
	.byte	2
	.byte	2
	.byte	4
	.byte	24
	.byte	0
	.byte	0
	.byte	0
	.byte	0
	.byte	0
	.byte	0
	.byte	0
	.byte	8
	.byte	0
	.byte	0
	.byte	0
	.byte	0
	.byte	8
	.byte	0
	.byte	0
	.byte	0
	.byte	0
	.byte	0
	.byte	0
	.byte	0
	.byte	8
	.byte	0
	.byte	0
	.byte	0
	.byte	0
	.byte	8
	.byte	16
	.byte	0
	.byte	0
	.byte	0
	.byte	0
	.byte	0
	.byte	4
	.byte	8
	.byte	16
	.byte	32
	.byte	16
	.byte	8
	.byte	4
	.byte	0
	.byte	0
	.byte	0
	.byte	0
	.byte	0
	.byte	0
	.byte	0
	.byte	62
	.byte	0
	.byte	62
	.byte	0
	.byte	0
	.byte	0
	.byte	0
	.byte	0
	.byte	0
	.byte	0
	.byte	0
	.byte	0
	.byte	16
	.byte	8
	.byte	4
	.byte	2
	.byte	4
	.byte	8
	.byte	16
	.byte	0
	.byte	0
	.byte	0
	.byte	0
	.byte	28
	.byte	34
	.byte	2
	.byte	2
	.byte	4
	.byte	8
	.byte	8
	.byte	0
	.byte	8
	.byte	0
	.byte	0
	.byte	0
	.byte	0
	.byte	30
	.byte	33
	.byte	77
	.byte	85
	.byte	85
	.byte	85
	.byte	78
	.byte	32
	.byte	28
	.byte	0
	.byte	0
	.byte	0
	.byte	0
	.byte	24
	.byte	8
	.byte	8
	.byte	20
	.byte	20
	.byte	34
	.byte	62
	.byte	34
	.byte	119
	.byte	0
	.byte	0
	.byte	0
	.byte	0
	.byte	126
	.byte	33
	.byte	33
	.byte	33
	.byte	62
	.byte	33
	.byte	33
	.byte	33
	.byte	126
	.byte	0
	.byte	0
	.byte	0
	.byte	0
	.byte	30
	.byte	33
	.byte	64
	.byte	64
	.byte	64
	.byte	64
	.byte	64
	.byte	33
	.byte	30
	.byte	0
	.byte	0
	.byte	0
	.byte	0
	.byte	124
	.byte	34
	.byte	33
	.byte	33
	.byte	33
	.byte	33
	.byte	33
	.byte	34
	.byte	124
	.byte	0
	.byte	0
	.byte	0
	.byte	0
	.byte	127
	.byte	33
	.byte	32
	.byte	36
	.byte	60
	.byte	36
	.byte	32
	.byte	33
	.byte	127
	.byte	0
	.byte	0
	.byte	0
	.byte	0
	.byte	127
	.byte	33
	.byte	32
	.byte	36
	.byte	60
	.byte	36
	.byte	32
	.byte	32
	.byte	120
	.byte	0
	.byte	0
	.byte	0
	.byte	0
	.byte	30
	.byte	33
	.byte	64
	.byte	64
	.byte	64
	.byte	71
	.byte	65
	.byte	33
	.byte	30
	.byte	0
	.byte	0
	.byte	0
	.byte	0
	.byte	119
	.byte	34
	.byte	34
	.byte	34
	.byte	62
	.byte	34
	.byte	34
	.byte	34
	.byte	119
	.byte	0
	.byte	0
	.byte	0
	.byte	0
	.byte	62
	.byte	8
	.byte	8
	.byte	8
	.byte	8
	.byte	8
	.byte	8
	.byte	8
	.byte	62
	.byte	0
	.byte	0
	.byte	0
	.byte	0
	.byte	30
	.byte	4
	.byte	4
	.byte	4
	.byte	4
	.byte	4
	.byte	68
	.byte	68
	.byte	56
	.byte	0
	.byte	0
	.byte	0
	.byte	0
	.byte	115
	.byte	34
	.byte	36
	.byte	36
	.byte	40
	.byte	56
	.byte	36
	.byte	34
	.byte	115
	.byte	0
	.byte	0
	.byte	0
	.byte	0
	.byte	124
	.byte	16
	.byte	16
	.byte	16
	.byte	16
	.byte	16
	.byte	16
	.byte	17
	.byte	127
	.byte	0
	.byte	0
	.byte	0
	.byte	0
	.byte	99
	.byte	34
	.byte	54
	.byte	54
	.byte	42
	.byte	42
	.byte	34
	.byte	34
	.byte	119
	.byte	0
	.byte	0
	.byte	0
	.byte	0
	.byte	103
	.byte	34
	.byte	50
	.byte	50
	.byte	42
	.byte	38
	.byte	38
	.byte	34
	.byte	114
	.byte	0
	.byte	0
	.byte	0
	.byte	0
	.byte	28
	.byte	34
	.byte	65
	.byte	65
	.byte	65
	.byte	65
	.byte	65
	.byte	34
	.byte	28
	.byte	0
	.byte	0
	.byte	0
	.byte	0
	.byte	126
	.byte	33
	.byte	33
	.byte	33
	.byte	62
	.byte	32
	.byte	32
	.byte	32
	.byte	126
	.byte	0
	.byte	0
	.byte	0
	.byte	0
	.byte	28
	.byte	34
	.byte	65
	.byte	65
	.byte	65
	.byte	65
	.byte	65
	.byte	34
	.byte	28
	.byte	27
	.byte	0
	.byte	0
	.byte	0
	.byte	126
	.byte	33
	.byte	33
	.byte	33
	.byte	62
	.byte	36
	.byte	36
	.byte	37
	.byte	115
	.byte	0
	.byte	0
	.byte	0
	.byte	0
	.byte	62
	.byte	65
	.byte	64
	.byte	64
	.byte	62
	.byte	1
	.byte	1
	.byte	97
	.byte	62
	.byte	0
	.byte	0
	.byte	0
	.byte	0
	.byte	127
	.byte	73
	.byte	8
	.byte	8
	.byte	8
	.byte	8
	.byte	8
	.byte	8
	.byte	28
	.byte	0
	.byte	0
	.byte	0
	.byte	0
	.byte	119
	.byte	34
	.byte	34
	.byte	34
	.byte	34
	.byte	34
	.byte	34
	.byte	34
	.byte	28
	.byte	0
	.byte	0
	.byte	0
	.byte	0
	.byte	119
	.byte	34
	.byte	34
	.byte	34
	.byte	20
	.byte	20
	.byte	20
	.byte	8
	.byte	8
	.byte	0
	.byte	0
	.byte	0
	.byte	0
	.byte	119
	.byte	34
	.byte	34
	.byte	34
	.byte	42
	.byte	42
	.byte	42
	.byte	20
	.byte	20
	.byte	0
	.byte	0
	.byte	0
	.byte	0
	.byte	119
	.byte	34
	.byte	20
	.byte	20
	.byte	8
	.byte	20
	.byte	20
	.byte	34
	.byte	119
	.byte	0
	.byte	0
	.byte	0
	.byte	0
	.byte	119
	.byte	34
	.byte	34
	.byte	20
	.byte	20
	.byte	8
	.byte	8
	.byte	8
	.byte	28
	.byte	0
	.byte	0
	.byte	0
	.byte	0
	.byte	127
	.byte	66
	.byte	4
	.byte	4
	.byte	8
	.byte	16
	.byte	16
	.byte	33
	.byte	127
	.byte	0
	.byte	0
	.byte	0
	.byte	0
	.byte	28
	.byte	16
	.byte	16
	.byte	16
	.byte	16
	.byte	16
	.byte	16
	.byte	16
	.byte	16
	.byte	16
	.byte	28
	.byte	0
	.byte	0
	.byte	0
	.byte	64
	.byte	32
	.byte	16
	.byte	8
	.byte	4
	.byte	2
	.byte	1
	.byte	0
	.byte	0
	.byte	0
	.byte	0
	.byte	0
	.byte	28
	.byte	4
	.byte	4
	.byte	4
	.byte	4
	.byte	4
	.byte	4
	.byte	4
	.byte	4
	.byte	4
	.byte	28
	.byte	0
	.byte	8
	.byte	20
	.byte	34
	.byte	0
	.byte	0
	.byte	0
	.byte	0
	.byte	0
	.byte	0
	.byte	0
	.byte	0
	.byte	0
	.byte	0
	.byte	0
	.byte	0
	.byte	0
	.byte	0
	.byte	0
	.byte	0
	.byte	0
	.byte	0
	.byte	0
	.byte	0
	.byte	0
	.byte	-1
	.byte	0
	.byte	0
	.byte	16
	.byte	8
	.byte	0
	.byte	0
	.byte	0
	.byte	0
	.byte	0
	.byte	0
	.byte	0
	.byte	0
	.byte	0
	.byte	0
	.byte	0
	.byte	0
	.byte	0
	.byte	0
	.byte	60
	.byte	2
	.byte	62
	.byte	66
	.byte	66
	.byte	61
	.byte	0
	.byte	0
	.byte	0
	.byte	0
	.byte	96
	.byte	32
	.byte	32
	.byte	62
	.byte	33
	.byte	33
	.byte	33
	.byte	33
	.byte	126
	.byte	0
	.byte	0
	.byte	0
	.byte	0
	.byte	0
	.byte	0
	.byte	0
	.byte	62
	.byte	65
	.byte	64
	.byte	64
	.byte	65
	.byte	62
	.byte	0
	.byte	0
	.byte	0
	.byte	0
	.byte	6
	.byte	2
	.byte	2
	.byte	62
	.byte	66
	.byte	66
	.byte	66
	.byte	66
	.byte	63
	.byte	0
	.byte	0
	.byte	0
	.byte	0
	.byte	0
	.byte	0
	.byte	0
	.byte	62
	.byte	65
	.byte	127
	.byte	64
	.byte	65
	.byte	62
	.byte	0
	.byte	0
	.byte	0
	.byte	0
	.byte	12
	.byte	16
	.byte	16
	.byte	60
	.byte	16
	.byte	16
	.byte	16
	.byte	16
	.byte	60
	.byte	0
	.byte	0
	.byte	0
	.byte	0
	.byte	0
	.byte	0
	.byte	0
	.byte	63
	.byte	66
	.byte	66
	.byte	66
	.byte	62
	.byte	2
	.byte	2
	.byte	60
	.byte	0
	.byte	0
	.byte	96
	.byte	32
	.byte	32
	.byte	44
	.byte	50
	.byte	34
	.byte	34
	.byte	34
	.byte	119
	.byte	0
	.byte	0
	.byte	0
	.byte	0
	.byte	8
	.byte	0
	.byte	0
	.byte	56
	.byte	8
	.byte	8
	.byte	8
	.byte	8
	.byte	62
	.byte	0
	.byte	0
	.byte	0
	.byte	0
	.byte	4
	.byte	0
	.byte	0
	.byte	60
	.byte	4
	.byte	4
	.byte	4
	.byte	4
	.byte	4
	.byte	4
	.byte	56
	.byte	0
	.byte	0
	.byte	96
	.byte	32
	.byte	32
	.byte	38
	.byte	36
	.byte	40
	.byte	56
	.byte	38
	.byte	99
	.byte	0
	.byte	0
	.byte	0
	.byte	0
	.byte	24
	.byte	8
	.byte	8
	.byte	8
	.byte	8
	.byte	8
	.byte	8
	.byte	8
	.byte	62
	.byte	0
	.byte	0
	.byte	0
	.byte	0
	.byte	0
	.byte	0
	.byte	0
	.byte	116
	.byte	42
	.byte	42
	.byte	42
	.byte	42
	.byte	107
	.byte	0
	.byte	0
	.byte	0
	.byte	0
	.byte	0
	.byte	0
	.byte	0
	.byte	108
	.byte	50
	.byte	34
	.byte	34
	.byte	34
	.byte	119
	.byte	0
	.byte	0
	.byte	0
	.byte	0
	.byte	0
	.byte	0
	.byte	0
	.byte	62
	.byte	65
	.byte	65
	.byte	65
	.byte	65
	.byte	62
	.byte	0
	.byte	0
	.byte	0
	.byte	0
	.byte	0
	.byte	0
	.byte	0
	.byte	126
	.byte	33
	.byte	33
	.byte	33
	.byte	33
	.byte	62
	.byte	32
	.byte	112
	.byte	0
	.byte	0
	.byte	0
	.byte	0
	.byte	0
	.byte	63
	.byte	66
	.byte	66
	.byte	66
	.byte	66
	.byte	62
	.byte	2
	.byte	7
	.byte	0
	.byte	0
	.byte	0
	.byte	0
	.byte	0
	.byte	118
	.byte	25
	.byte	16
	.byte	16
	.byte	16
	.byte	124
	.byte	0
	.byte	0
	.byte	0
	.byte	0
	.byte	0
	.byte	0
	.byte	0
	.byte	62
	.byte	65
	.byte	56
	.byte	6
	.byte	65
	.byte	62
	.byte	0
	.byte	0
	.byte	0
	.byte	0
	.byte	0
	.byte	16
	.byte	16
	.byte	62
	.byte	16
	.byte	16
	.byte	16
	.byte	18
	.byte	14
	.byte	0
	.byte	0
	.byte	0
	.byte	0
	.byte	0
	.byte	0
	.byte	0
	.byte	102
	.byte	34
	.byte	34
	.byte	34
	.byte	38
	.byte	27
	.byte	0
	.byte	0
	.byte	0
	.byte	0
	.byte	0
	.byte	0
	.byte	0
	.byte	119
	.byte	34
	.byte	34
	.byte	20
	.byte	20
	.byte	8
	.byte	0
	.byte	0
	.byte	0
	.byte	0
	.byte	0
	.byte	0
	.byte	0
	.byte	119
	.byte	34
	.byte	42
	.byte	42
	.byte	20
	.byte	20
	.byte	0
	.byte	0
	.byte	0
	.byte	0
	.byte	0
	.byte	0
	.byte	0
	.byte	119
	.byte	34
	.byte	28
	.byte	28
	.byte	34
	.byte	119
	.byte	0
	.byte	0
	.byte	0
	.byte	0
	.byte	0
	.byte	0
	.byte	0
	.byte	119
	.byte	34
	.byte	34
	.byte	20
	.byte	20
	.byte	8
	.byte	8
	.byte	48
	.byte	0
	.byte	0
	.byte	0
	.byte	0
	.byte	0
	.byte	126
	.byte	68
	.byte	8
	.byte	16
	.byte	34
	.byte	126
	.byte	0
	.byte	0
	.byte	0
	.byte	0
	.byte	6
	.byte	8
	.byte	8
	.byte	8
	.byte	8
	.byte	48
	.byte	8
	.byte	8
	.byte	8
	.byte	8
	.byte	6
	.byte	0
	.byte	8
	.byte	8
	.byte	8
	.byte	8
	.byte	8
	.byte	8
	.byte	8
	.byte	8
	.byte	8
	.byte	8
	.byte	8
	.byte	8
	.byte	0
	.byte	0
	.byte	48
	.byte	8
	.byte	8
	.byte	8
	.byte	8
	.byte	6
	.byte	8
	.byte	8
	.byte	8
	.byte	8
	.byte	48
	.byte	0
	.byte	0
	.byte	0
	.byte	49
	.byte	73
	.byte	70
	.byte	0
	.byte	0
	.byte	0
	.byte	0
	.byte	0
	.byte	0
	.byte	0
	.comm	objects_main_tree, 8, 3
	.comm	tasks, 8, 3
	.comm	current_task, 8, 3
	.comm	parametresHW, 8, 3
	.text
.Letext0:
	.file 5 "D:/WORK/BUILD/OS/dcooos/kernel64/types.h"
	.file 6 "D:/WORK/BUILD/OS/dcooos/kernel64/main.h"
	.file 7 "D:/WORK/BUILD/OS/dcooos/kernel64/idt.h"
	.file 8 "D:/WORK/BUILD/OS/dcooos/kernel64/task.h"
	.file 9 "D:/WORK/BUILD/OS/dcooos/kernel64/objects.h"
	.file 10 "D:/WORK/BUILD/OS/dcooos/video/video.h"